

Microchip Technology PIC LITE Macro Assembler V1.10 build 47796 
                                                                                               Sun Nov  4 22:09:02 2012

HI-TECH Software Omniscient Code Generator (Lite mode) build 47796
     1  0000                     opt subtitle "HI-TECH Software Omniscient Code Generator (Lite mode) build 47796"
     2                           
     3                           opt pagewidth 120
     4                           
     5                           	opt lm
     6                           
     7                           	processor	12F683
     8                           clrc	macro
     9                           	bcf	3,0
    10  0000                     	endm
    11                           clrz	macro
    12                           	bcf	3,2
    13  0000                     	endm
    14                           setc	macro
    15                           	bsf	3,0
    16  0000                     	endm
    17                           setz	macro
    18                           	bsf	3,2
    19  0000                     	endm
    20                           skipc	macro
    21                           	btfss	3,0
    22  0000                     	endm
    23                           skipz	macro
    24                           	btfss	3,2
    25  0000                     	endm
    26                           skipnc	macro
    27                           	btfsc	3,0
    28  0000                     	endm
    29                           skipnz	macro
    30                           	btfsc	3,2
    31  0000                     	endm
    32  0000                     indf	equ	0
    33  0000                     indf0	equ	0
    34  0002                     pc	equ	2
    35  0002                     pcl	equ	2
    36  0003                     status	equ	3
    37  0004                     fsr	equ	4
    38  0004                     fsr0	equ	4
    39  0001                     c	equ	1
    40  0000                     z	equ	0
    41  000A                     pclath	equ	10
    42                           # 46 "/Applications/microchip/xc8/v1.10/include/pic12f683.h"
    43  0000                     INDF equ 00h ;# 
    44                           # 52 "/Applications/microchip/xc8/v1.10/include/pic12f683.h"
    45  0001                     TMR0 equ 01h ;# 
    46                           # 58 "/Applications/microchip/xc8/v1.10/include/pic12f683.h"
    47  0002                     PCL equ 02h ;# 
    48                           # 64 "/Applications/microchip/xc8/v1.10/include/pic12f683.h"
    49  0003                     STATUS equ 03h ;# 
    50                           # 151 "/Applications/microchip/xc8/v1.10/include/pic12f683.h"
    51  0004                     FSR equ 04h ;# 
    52                           # 157 "/Applications/microchip/xc8/v1.10/include/pic12f683.h"
    53  0005                     GPIO equ 05h ;# 
    54                           # 206 "/Applications/microchip/xc8/v1.10/include/pic12f683.h"
    55  000A                     PCLATH equ 0Ah ;# 
    56                           # 225 "/Applications/microchip/xc8/v1.10/include/pic12f683.h"
    57  000B                     INTCON equ 0Bh ;# 
    58                           # 302 "/Applications/microchip/xc8/v1.10/include/pic12f683.h"
    59  000C                     PIR1 equ 0Ch ;# 
    60                           # 372 "/Applications/microchip/xc8/v1.10/include/pic12f683.h"
    61  000E                     TMR1 equ 0Eh ;# 
    62                           # 378 "/Applications/microchip/xc8/v1.10/include/pic12f683.h"
    63  000E                     TMR1L equ 0Eh ;# 
    64                           # 384 "/Applications/microchip/xc8/v1.10/include/pic12f683.h"
    65  000F                     TMR1H equ 0Fh ;# 
    66                           # 390 "/Applications/microchip/xc8/v1.10/include/pic12f683.h"
    67  0010                     T1CON equ 010h ;# 
    68                           # 466 "/Applications/microchip/xc8/v1.10/include/pic12f683.h"
    69  0011                     TMR2 equ 011h ;# 
    70                           # 472 "/Applications/microchip/xc8/v1.10/include/pic12f683.h"
    71  0012                     T2CON equ 012h ;# 
    72                           # 542 "/Applications/microchip/xc8/v1.10/include/pic12f683.h"
    73  0013                     CCPR1 equ 013h ;# 
    74                           # 548 "/Applications/microchip/xc8/v1.10/include/pic12f683.h"
    75  0013                     CCPR1L equ 013h ;# 
    76                           # 554 "/Applications/microchip/xc8/v1.10/include/pic12f683.h"
    77  0014                     CCPR1H equ 014h ;# 
    78                           # 560 "/Applications/microchip/xc8/v1.10/include/pic12f683.h"
    79  0015                     CCP1CON equ 015h ;# 
    80                           # 623 "/Applications/microchip/xc8/v1.10/include/pic12f683.h"
    81  0018                     WDTCON equ 018h ;# 
    82                           # 675 "/Applications/microchip/xc8/v1.10/include/pic12f683.h"
    83  0019                     CMCON0 equ 019h ;# 
    84                           # 733 "/Applications/microchip/xc8/v1.10/include/pic12f683.h"
    85  001A                     CMCON1 equ 01Ah ;# 
    86                           # 758 "/Applications/microchip/xc8/v1.10/include/pic12f683.h"
    87  001E                     ADRESH equ 01Eh ;# 
    88                           # 764 "/Applications/microchip/xc8/v1.10/include/pic12f683.h"
    89  001F                     ADCON0 equ 01Fh ;# 
    90                           # 853 "/Applications/microchip/xc8/v1.10/include/pic12f683.h"
    91  0081                     OPTION_REG equ 081h ;# 
    92                           # 922 "/Applications/microchip/xc8/v1.10/include/pic12f683.h"
    93  0085                     TRISIO equ 085h ;# 
    94                           # 971 "/Applications/microchip/xc8/v1.10/include/pic12f683.h"
    95  008C                     PIE1 equ 08Ch ;# 
    96                           # 1041 "/Applications/microchip/xc8/v1.10/include/pic12f683.h"
    97  008E                     PCON equ 08Eh ;# 
    98                           # 1079 "/Applications/microchip/xc8/v1.10/include/pic12f683.h"
    99  008F                     OSCCON equ 08Fh ;# 
   100                           # 1143 "/Applications/microchip/xc8/v1.10/include/pic12f683.h"
   101  0090                     OSCTUNE equ 090h ;# 
   102                           # 1194 "/Applications/microchip/xc8/v1.10/include/pic12f683.h"
   103  0092                     PR2 equ 092h ;# 
   104                           # 1200 "/Applications/microchip/xc8/v1.10/include/pic12f683.h"
   105  0095                     WPU equ 095h ;# 
   106                           # 1205 "/Applications/microchip/xc8/v1.10/include/pic12f683.h"
   107  0095                     WPUA equ 095h ;# 
   108                           # 1353 "/Applications/microchip/xc8/v1.10/include/pic12f683.h"
   109  0096                     IOC equ 096h ;# 
   110                           # 1358 "/Applications/microchip/xc8/v1.10/include/pic12f683.h"
   111  0096                     IOCA equ 096h ;# 
   112                           # 1526 "/Applications/microchip/xc8/v1.10/include/pic12f683.h"
   113  0099                     VRCON equ 099h ;# 
   114                           # 1585 "/Applications/microchip/xc8/v1.10/include/pic12f683.h"
   115  009A                     EEDAT equ 09Ah ;# 
   116                           # 1590 "/Applications/microchip/xc8/v1.10/include/pic12f683.h"
   117  009A                     EEDATA equ 09Ah ;# 
   118                           # 1622 "/Applications/microchip/xc8/v1.10/include/pic12f683.h"
   119  009B                     EEADR equ 09Bh ;# 
   120                           # 1628 "/Applications/microchip/xc8/v1.10/include/pic12f683.h"
   121  009C                     EECON1 equ 09Ch ;# 
   122                           # 1665 "/Applications/microchip/xc8/v1.10/include/pic12f683.h"
   123  009D                     EECON2 equ 09Dh ;# 
   124                           # 1671 "/Applications/microchip/xc8/v1.10/include/pic12f683.h"
   125  009E                     ADRESL equ 09Eh ;# 
   126                           # 1677 "/Applications/microchip/xc8/v1.10/include/pic12f683.h"
   127  009F                     ANSEL equ 09Fh ;# 
   128                           # 46 "/Applications/microchip/xc8/v1.10/include/pic12f683.h"
   129  0000                     INDF equ 00h ;# 
   130                           # 52 "/Applications/microchip/xc8/v1.10/include/pic12f683.h"
   131  0001                     TMR0 equ 01h ;# 
   132                           # 58 "/Applications/microchip/xc8/v1.10/include/pic12f683.h"
   133  0002                     PCL equ 02h ;# 
   134                           # 64 "/Applications/microchip/xc8/v1.10/include/pic12f683.h"
   135  0003                     STATUS equ 03h ;# 
   136                           # 151 "/Applications/microchip/xc8/v1.10/include/pic12f683.h"
   137  0004                     FSR equ 04h ;# 
   138                           # 157 "/Applications/microchip/xc8/v1.10/include/pic12f683.h"
   139  0005                     GPIO equ 05h ;# 
   140                           # 206 "/Applications/microchip/xc8/v1.10/include/pic12f683.h"
   141  000A                     PCLATH equ 0Ah ;# 
   142                           # 225 "/Applications/microchip/xc8/v1.10/include/pic12f683.h"
   143  000B                     INTCON equ 0Bh ;# 
   144                           # 302 "/Applications/microchip/xc8/v1.10/include/pic12f683.h"
   145  000C                     PIR1 equ 0Ch ;# 
   146                           # 372 "/Applications/microchip/xc8/v1.10/include/pic12f683.h"
   147  000E                     TMR1 equ 0Eh ;# 
   148                           # 378 "/Applications/microchip/xc8/v1.10/include/pic12f683.h"
   149  000E                     TMR1L equ 0Eh ;# 
   150                           # 384 "/Applications/microchip/xc8/v1.10/include/pic12f683.h"
   151  000F                     TMR1H equ 0Fh ;# 
   152                           # 390 "/Applications/microchip/xc8/v1.10/include/pic12f683.h"
   153  0010                     T1CON equ 010h ;# 
   154                           # 466 "/Applications/microchip/xc8/v1.10/include/pic12f683.h"
   155  0011                     TMR2 equ 011h ;# 
   156                           # 472 "/Applications/microchip/xc8/v1.10/include/pic12f683.h"
   157  0012                     T2CON equ 012h ;# 
   158                           # 542 "/Applications/microchip/xc8/v1.10/include/pic12f683.h"
   159  0013                     CCPR1 equ 013h ;# 
   160                           # 548 "/Applications/microchip/xc8/v1.10/include/pic12f683.h"
   161  0013                     CCPR1L equ 013h ;# 
   162                           # 554 "/Applications/microchip/xc8/v1.10/include/pic12f683.h"
   163  0014                     CCPR1H equ 014h ;# 
   164                           # 560 "/Applications/microchip/xc8/v1.10/include/pic12f683.h"
   165  0015                     CCP1CON equ 015h ;# 
   166                           # 623 "/Applications/microchip/xc8/v1.10/include/pic12f683.h"
   167  0018                     WDTCON equ 018h ;# 
   168                           # 675 "/Applications/microchip/xc8/v1.10/include/pic12f683.h"
   169  0019                     CMCON0 equ 019h ;# 
   170                           # 733 "/Applications/microchip/xc8/v1.10/include/pic12f683.h"
   171  001A                     CMCON1 equ 01Ah ;# 
   172                           # 758 "/Applications/microchip/xc8/v1.10/include/pic12f683.h"
   173  001E                     ADRESH equ 01Eh ;# 
   174                           # 764 "/Applications/microchip/xc8/v1.10/include/pic12f683.h"
   175  001F                     ADCON0 equ 01Fh ;# 
   176                           # 853 "/Applications/microchip/xc8/v1.10/include/pic12f683.h"
   177  0081                     OPTION_REG equ 081h ;# 
   178                           # 922 "/Applications/microchip/xc8/v1.10/include/pic12f683.h"
   179  0085                     TRISIO equ 085h ;# 
   180                           # 971 "/Applications/microchip/xc8/v1.10/include/pic12f683.h"
   181  008C                     PIE1 equ 08Ch ;# 
   182                           # 1041 "/Applications/microchip/xc8/v1.10/include/pic12f683.h"
   183  008E                     PCON equ 08Eh ;# 
   184                           # 1079 "/Applications/microchip/xc8/v1.10/include/pic12f683.h"
   185  008F                     OSCCON equ 08Fh ;# 
   186                           # 1143 "/Applications/microchip/xc8/v1.10/include/pic12f683.h"
   187  0090                     OSCTUNE equ 090h ;# 
   188                           # 1194 "/Applications/microchip/xc8/v1.10/include/pic12f683.h"
   189  0092                     PR2 equ 092h ;# 
   190                           # 1200 "/Applications/microchip/xc8/v1.10/include/pic12f683.h"
   191  0095                     WPU equ 095h ;# 
   192                           # 1205 "/Applications/microchip/xc8/v1.10/include/pic12f683.h"
   193  0095                     WPUA equ 095h ;# 
   194                           # 1353 "/Applications/microchip/xc8/v1.10/include/pic12f683.h"
   195  0096                     IOC equ 096h ;# 
   196                           # 1358 "/Applications/microchip/xc8/v1.10/include/pic12f683.h"
   197  0096                     IOCA equ 096h ;# 
   198                           # 1526 "/Applications/microchip/xc8/v1.10/include/pic12f683.h"
   199  0099                     VRCON equ 099h ;# 
   200                           # 1585 "/Applications/microchip/xc8/v1.10/include/pic12f683.h"
   201  009A                     EEDAT equ 09Ah ;# 
   202                           # 1590 "/Applications/microchip/xc8/v1.10/include/pic12f683.h"
   203  009A                     EEDATA equ 09Ah ;# 
   204                           # 1622 "/Applications/microchip/xc8/v1.10/include/pic12f683.h"
   205  009B                     EEADR equ 09Bh ;# 
   206                           # 1628 "/Applications/microchip/xc8/v1.10/include/pic12f683.h"
   207  009C                     EECON1 equ 09Ch ;# 
   208                           # 1665 "/Applications/microchip/xc8/v1.10/include/pic12f683.h"
   209  009D                     EECON2 equ 09Dh ;# 
   210                           # 1671 "/Applications/microchip/xc8/v1.10/include/pic12f683.h"
   211  009E                     ADRESL equ 09Eh ;# 
   212                           # 1677 "/Applications/microchip/xc8/v1.10/include/pic12f683.h"
   213  009F                     ANSEL equ 09Fh ;# 
   214                           # 46 "/Applications/microchip/xc8/v1.10/include/pic12f683.h"
   215  0000                     INDF equ 00h ;# 
   216                           # 52 "/Applications/microchip/xc8/v1.10/include/pic12f683.h"
   217  0001                     TMR0 equ 01h ;# 
   218                           # 58 "/Applications/microchip/xc8/v1.10/include/pic12f683.h"
   219  0002                     PCL equ 02h ;# 
   220                           # 64 "/Applications/microchip/xc8/v1.10/include/pic12f683.h"
   221  0003                     STATUS equ 03h ;# 
   222                           # 151 "/Applications/microchip/xc8/v1.10/include/pic12f683.h"
   223  0004                     FSR equ 04h ;# 
   224                           # 157 "/Applications/microchip/xc8/v1.10/include/pic12f683.h"
   225  0005                     GPIO equ 05h ;# 
   226                           # 206 "/Applications/microchip/xc8/v1.10/include/pic12f683.h"
   227  000A                     PCLATH equ 0Ah ;# 
   228                           # 225 "/Applications/microchip/xc8/v1.10/include/pic12f683.h"
   229  000B                     INTCON equ 0Bh ;# 
   230                           # 302 "/Applications/microchip/xc8/v1.10/include/pic12f683.h"
   231  000C                     PIR1 equ 0Ch ;# 
   232                           # 372 "/Applications/microchip/xc8/v1.10/include/pic12f683.h"
   233  000E                     TMR1 equ 0Eh ;# 
   234                           # 378 "/Applications/microchip/xc8/v1.10/include/pic12f683.h"
   235  000E                     TMR1L equ 0Eh ;# 
   236                           # 384 "/Applications/microchip/xc8/v1.10/include/pic12f683.h"
   237  000F                     TMR1H equ 0Fh ;# 
   238                           # 390 "/Applications/microchip/xc8/v1.10/include/pic12f683.h"
   239  0010                     T1CON equ 010h ;# 
   240                           # 466 "/Applications/microchip/xc8/v1.10/include/pic12f683.h"
   241  0011                     TMR2 equ 011h ;# 
   242                           # 472 "/Applications/microchip/xc8/v1.10/include/pic12f683.h"
   243  0012                     T2CON equ 012h ;# 
   244                           # 542 "/Applications/microchip/xc8/v1.10/include/pic12f683.h"
   245  0013                     CCPR1 equ 013h ;# 
   246                           # 548 "/Applications/microchip/xc8/v1.10/include/pic12f683.h"
   247  0013                     CCPR1L equ 013h ;# 
   248                           # 554 "/Applications/microchip/xc8/v1.10/include/pic12f683.h"
   249  0014                     CCPR1H equ 014h ;# 
   250                           # 560 "/Applications/microchip/xc8/v1.10/include/pic12f683.h"
   251  0015                     CCP1CON equ 015h ;# 
   252                           # 623 "/Applications/microchip/xc8/v1.10/include/pic12f683.h"
   253  0018                     WDTCON equ 018h ;# 
   254                           # 675 "/Applications/microchip/xc8/v1.10/include/pic12f683.h"
   255  0019                     CMCON0 equ 019h ;# 
   256                           # 733 "/Applications/microchip/xc8/v1.10/include/pic12f683.h"
   257  001A                     CMCON1 equ 01Ah ;# 
   258                           # 758 "/Applications/microchip/xc8/v1.10/include/pic12f683.h"
   259  001E                     ADRESH equ 01Eh ;# 
   260                           # 764 "/Applications/microchip/xc8/v1.10/include/pic12f683.h"
   261  001F                     ADCON0 equ 01Fh ;# 
   262                           # 853 "/Applications/microchip/xc8/v1.10/include/pic12f683.h"
   263  0081                     OPTION_REG equ 081h ;# 
   264                           # 922 "/Applications/microchip/xc8/v1.10/include/pic12f683.h"
   265  0085                     TRISIO equ 085h ;# 
   266                           # 971 "/Applications/microchip/xc8/v1.10/include/pic12f683.h"
   267  008C                     PIE1 equ 08Ch ;# 
   268                           # 1041 "/Applications/microchip/xc8/v1.10/include/pic12f683.h"
   269  008E                     PCON equ 08Eh ;# 
   270                           # 1079 "/Applications/microchip/xc8/v1.10/include/pic12f683.h"
   271  008F                     OSCCON equ 08Fh ;# 
   272                           # 1143 "/Applications/microchip/xc8/v1.10/include/pic12f683.h"
   273  0090                     OSCTUNE equ 090h ;# 
   274                           # 1194 "/Applications/microchip/xc8/v1.10/include/pic12f683.h"
   275  0092                     PR2 equ 092h ;# 
   276                           # 1200 "/Applications/microchip/xc8/v1.10/include/pic12f683.h"
   277  0095                     WPU equ 095h ;# 
   278                           # 1205 "/Applications/microchip/xc8/v1.10/include/pic12f683.h"
   279  0095                     WPUA equ 095h ;# 
   280                           # 1353 "/Applications/microchip/xc8/v1.10/include/pic12f683.h"
   281  0096                     IOC equ 096h ;# 
   282                           # 1358 "/Applications/microchip/xc8/v1.10/include/pic12f683.h"
   283  0096                     IOCA equ 096h ;# 
   284                           # 1526 "/Applications/microchip/xc8/v1.10/include/pic12f683.h"
   285  0099                     VRCON equ 099h ;# 
   286                           # 1585 "/Applications/microchip/xc8/v1.10/include/pic12f683.h"
   287  009A                     EEDAT equ 09Ah ;# 
   288                           # 1590 "/Applications/microchip/xc8/v1.10/include/pic12f683.h"
   289  009A                     EEDATA equ 09Ah ;# 
   290                           # 1622 "/Applications/microchip/xc8/v1.10/include/pic12f683.h"
   291  009B                     EEADR equ 09Bh ;# 
   292                           # 1628 "/Applications/microchip/xc8/v1.10/include/pic12f683.h"
   293  009C                     EECON1 equ 09Ch ;# 
   294                           # 1665 "/Applications/microchip/xc8/v1.10/include/pic12f683.h"
   295  009D                     EECON2 equ 09Dh ;# 
   296                           # 1671 "/Applications/microchip/xc8/v1.10/include/pic12f683.h"
   297  009E                     ADRESL equ 09Eh ;# 
   298                           # 1677 "/Applications/microchip/xc8/v1.10/include/pic12f683.h"
   299  009F                     ANSEL equ 09Fh ;# 
   300                           # 46 "/Applications/microchip/xc8/v1.10/include/pic12f683.h"
   301  0000                     INDF equ 00h ;# 
   302                           # 52 "/Applications/microchip/xc8/v1.10/include/pic12f683.h"
   303  0001                     TMR0 equ 01h ;# 
   304                           # 58 "/Applications/microchip/xc8/v1.10/include/pic12f683.h"
   305  0002                     PCL equ 02h ;# 
   306                           # 64 "/Applications/microchip/xc8/v1.10/include/pic12f683.h"
   307  0003                     STATUS equ 03h ;# 
   308                           # 151 "/Applications/microchip/xc8/v1.10/include/pic12f683.h"
   309  0004                     FSR equ 04h ;# 
   310                           # 157 "/Applications/microchip/xc8/v1.10/include/pic12f683.h"
   311  0005                     GPIO equ 05h ;# 
   312                           # 206 "/Applications/microchip/xc8/v1.10/include/pic12f683.h"
   313  000A                     PCLATH equ 0Ah ;# 
   314                           # 225 "/Applications/microchip/xc8/v1.10/include/pic12f683.h"
   315  000B                     INTCON equ 0Bh ;# 
   316                           # 302 "/Applications/microchip/xc8/v1.10/include/pic12f683.h"
   317  000C                     PIR1 equ 0Ch ;# 
   318                           # 372 "/Applications/microchip/xc8/v1.10/include/pic12f683.h"
   319  000E                     TMR1 equ 0Eh ;# 
   320                           # 378 "/Applications/microchip/xc8/v1.10/include/pic12f683.h"
   321  000E                     TMR1L equ 0Eh ;# 
   322                           # 384 "/Applications/microchip/xc8/v1.10/include/pic12f683.h"
   323  000F                     TMR1H equ 0Fh ;# 
   324                           # 390 "/Applications/microchip/xc8/v1.10/include/pic12f683.h"
   325  0010                     T1CON equ 010h ;# 
   326                           # 466 "/Applications/microchip/xc8/v1.10/include/pic12f683.h"
   327  0011                     TMR2 equ 011h ;# 
   328                           # 472 "/Applications/microchip/xc8/v1.10/include/pic12f683.h"
   329  0012                     T2CON equ 012h ;# 
   330                           # 542 "/Applications/microchip/xc8/v1.10/include/pic12f683.h"
   331  0013                     CCPR1 equ 013h ;# 
   332                           # 548 "/Applications/microchip/xc8/v1.10/include/pic12f683.h"
   333  0013                     CCPR1L equ 013h ;# 
   334                           # 554 "/Applications/microchip/xc8/v1.10/include/pic12f683.h"
   335  0014                     CCPR1H equ 014h ;# 
   336                           # 560 "/Applications/microchip/xc8/v1.10/include/pic12f683.h"
   337  0015                     CCP1CON equ 015h ;# 
   338                           # 623 "/Applications/microchip/xc8/v1.10/include/pic12f683.h"
   339  0018                     WDTCON equ 018h ;# 
   340                           # 675 "/Applications/microchip/xc8/v1.10/include/pic12f683.h"
   341  0019                     CMCON0 equ 019h ;# 
   342                           # 733 "/Applications/microchip/xc8/v1.10/include/pic12f683.h"
   343  001A                     CMCON1 equ 01Ah ;# 
   344                           # 758 "/Applications/microchip/xc8/v1.10/include/pic12f683.h"
   345  001E                     ADRESH equ 01Eh ;# 
   346                           # 764 "/Applications/microchip/xc8/v1.10/include/pic12f683.h"
   347  001F                     ADCON0 equ 01Fh ;# 
   348                           # 853 "/Applications/microchip/xc8/v1.10/include/pic12f683.h"
   349  0081                     OPTION_REG equ 081h ;# 
   350                           # 922 "/Applications/microchip/xc8/v1.10/include/pic12f683.h"
   351  0085                     TRISIO equ 085h ;# 
   352                           # 971 "/Applications/microchip/xc8/v1.10/include/pic12f683.h"
   353  008C                     PIE1 equ 08Ch ;# 
   354                           # 1041 "/Applications/microchip/xc8/v1.10/include/pic12f683.h"
   355  008E                     PCON equ 08Eh ;# 
   356                           # 1079 "/Applications/microchip/xc8/v1.10/include/pic12f683.h"
   357  008F                     OSCCON equ 08Fh ;# 
   358                           # 1143 "/Applications/microchip/xc8/v1.10/include/pic12f683.h"
   359  0090                     OSCTUNE equ 090h ;# 
   360                           # 1194 "/Applications/microchip/xc8/v1.10/include/pic12f683.h"
   361  0092                     PR2 equ 092h ;# 
   362                           # 1200 "/Applications/microchip/xc8/v1.10/include/pic12f683.h"
   363  0095                     WPU equ 095h ;# 
   364                           # 1205 "/Applications/microchip/xc8/v1.10/include/pic12f683.h"
   365  0095                     WPUA equ 095h ;# 
   366                           # 1353 "/Applications/microchip/xc8/v1.10/include/pic12f683.h"
   367  0096                     IOC equ 096h ;# 
   368                           # 1358 "/Applications/microchip/xc8/v1.10/include/pic12f683.h"
   369  0096                     IOCA equ 096h ;# 
   370                           # 1526 "/Applications/microchip/xc8/v1.10/include/pic12f683.h"
   371  0099                     VRCON equ 099h ;# 
   372                           # 1585 "/Applications/microchip/xc8/v1.10/include/pic12f683.h"
   373  009A                     EEDAT equ 09Ah ;# 
   374                           # 1590 "/Applications/microchip/xc8/v1.10/include/pic12f683.h"
   375  009A                     EEDATA equ 09Ah ;# 
   376                           # 1622 "/Applications/microchip/xc8/v1.10/include/pic12f683.h"
   377  009B                     EEADR equ 09Bh ;# 
   378                           # 1628 "/Applications/microchip/xc8/v1.10/include/pic12f683.h"
   379  009C                     EECON1 equ 09Ch ;# 
   380                           # 1665 "/Applications/microchip/xc8/v1.10/include/pic12f683.h"
   381  009D                     EECON2 equ 09Dh ;# 
   382                           # 1671 "/Applications/microchip/xc8/v1.10/include/pic12f683.h"
   383  009E                     ADRESL equ 09Eh ;# 
   384                           # 1677 "/Applications/microchip/xc8/v1.10/include/pic12f683.h"
   385  009F                     ANSEL equ 09Fh ;# 
   386                           # 46 "/Applications/microchip/xc8/v1.10/include/pic12f683.h"
   387  0000                     INDF equ 00h ;# 
   388                           # 52 "/Applications/microchip/xc8/v1.10/include/pic12f683.h"
   389  0001                     TMR0 equ 01h ;# 
   390                           # 58 "/Applications/microchip/xc8/v1.10/include/pic12f683.h"
   391  0002                     PCL equ 02h ;# 
   392                           # 64 "/Applications/microchip/xc8/v1.10/include/pic12f683.h"
   393  0003                     STATUS equ 03h ;# 
   394                           # 151 "/Applications/microchip/xc8/v1.10/include/pic12f683.h"
   395  0004                     FSR equ 04h ;# 
   396                           # 157 "/Applications/microchip/xc8/v1.10/include/pic12f683.h"
   397  0005                     GPIO equ 05h ;# 
   398                           # 206 "/Applications/microchip/xc8/v1.10/include/pic12f683.h"
   399  000A                     PCLATH equ 0Ah ;# 
   400                           # 225 "/Applications/microchip/xc8/v1.10/include/pic12f683.h"
   401  000B                     INTCON equ 0Bh ;# 
   402                           # 302 "/Applications/microchip/xc8/v1.10/include/pic12f683.h"
   403  000C                     PIR1 equ 0Ch ;# 
   404                           # 372 "/Applications/microchip/xc8/v1.10/include/pic12f683.h"
   405  000E                     TMR1 equ 0Eh ;# 
   406                           # 378 "/Applications/microchip/xc8/v1.10/include/pic12f683.h"
   407  000E                     TMR1L equ 0Eh ;# 
   408                           # 384 "/Applications/microchip/xc8/v1.10/include/pic12f683.h"
   409  000F                     TMR1H equ 0Fh ;# 
   410                           # 390 "/Applications/microchip/xc8/v1.10/include/pic12f683.h"
   411  0010                     T1CON equ 010h ;# 
   412                           # 466 "/Applications/microchip/xc8/v1.10/include/pic12f683.h"
   413  0011                     TMR2 equ 011h ;# 
   414                           # 472 "/Applications/microchip/xc8/v1.10/include/pic12f683.h"
   415  0012                     T2CON equ 012h ;# 
   416                           # 542 "/Applications/microchip/xc8/v1.10/include/pic12f683.h"
   417  0013                     CCPR1 equ 013h ;# 
   418                           # 548 "/Applications/microchip/xc8/v1.10/include/pic12f683.h"
   419  0013                     CCPR1L equ 013h ;# 
   420                           # 554 "/Applications/microchip/xc8/v1.10/include/pic12f683.h"
   421  0014                     CCPR1H equ 014h ;# 
   422                           # 560 "/Applications/microchip/xc8/v1.10/include/pic12f683.h"
   423  0015                     CCP1CON equ 015h ;# 
   424                           # 623 "/Applications/microchip/xc8/v1.10/include/pic12f683.h"
   425  0018                     WDTCON equ 018h ;# 
   426                           # 675 "/Applications/microchip/xc8/v1.10/include/pic12f683.h"
   427  0019                     CMCON0 equ 019h ;# 
   428                           # 733 "/Applications/microchip/xc8/v1.10/include/pic12f683.h"
   429  001A                     CMCON1 equ 01Ah ;# 
   430                           # 758 "/Applications/microchip/xc8/v1.10/include/pic12f683.h"
   431  001E                     ADRESH equ 01Eh ;# 
   432                           # 764 "/Applications/microchip/xc8/v1.10/include/pic12f683.h"
   433  001F                     ADCON0 equ 01Fh ;# 
   434                           # 853 "/Applications/microchip/xc8/v1.10/include/pic12f683.h"
   435  0081                     OPTION_REG equ 081h ;# 
   436                           # 922 "/Applications/microchip/xc8/v1.10/include/pic12f683.h"
   437  0085                     TRISIO equ 085h ;# 
   438                           # 971 "/Applications/microchip/xc8/v1.10/include/pic12f683.h"
   439  008C                     PIE1 equ 08Ch ;# 
   440                           # 1041 "/Applications/microchip/xc8/v1.10/include/pic12f683.h"
   441  008E                     PCON equ 08Eh ;# 
   442                           # 1079 "/Applications/microchip/xc8/v1.10/include/pic12f683.h"
   443  008F                     OSCCON equ 08Fh ;# 
   444                           # 1143 "/Applications/microchip/xc8/v1.10/include/pic12f683.h"
   445  0090                     OSCTUNE equ 090h ;# 
   446                           # 1194 "/Applications/microchip/xc8/v1.10/include/pic12f683.h"
   447  0092                     PR2 equ 092h ;# 
   448                           # 1200 "/Applications/microchip/xc8/v1.10/include/pic12f683.h"
   449  0095                     WPU equ 095h ;# 
   450                           # 1205 "/Applications/microchip/xc8/v1.10/include/pic12f683.h"
   451  0095                     WPUA equ 095h ;# 
   452                           # 1353 "/Applications/microchip/xc8/v1.10/include/pic12f683.h"
   453  0096                     IOC equ 096h ;# 
   454                           # 1358 "/Applications/microchip/xc8/v1.10/include/pic12f683.h"
   455  0096                     IOCA equ 096h ;# 
   456                           # 1526 "/Applications/microchip/xc8/v1.10/include/pic12f683.h"
   457  0099                     VRCON equ 099h ;# 
   458                           # 1585 "/Applications/microchip/xc8/v1.10/include/pic12f683.h"
   459  009A                     EEDAT equ 09Ah ;# 
   460                           # 1590 "/Applications/microchip/xc8/v1.10/include/pic12f683.h"
   461  009A                     EEDATA equ 09Ah ;# 
   462                           # 1622 "/Applications/microchip/xc8/v1.10/include/pic12f683.h"
   463  009B                     EEADR equ 09Bh ;# 
   464                           # 1628 "/Applications/microchip/xc8/v1.10/include/pic12f683.h"
   465  009C                     EECON1 equ 09Ch ;# 
   466                           # 1665 "/Applications/microchip/xc8/v1.10/include/pic12f683.h"
   467  009D                     EECON2 equ 09Dh ;# 
   468                           # 1671 "/Applications/microchip/xc8/v1.10/include/pic12f683.h"
   469  009E                     ADRESL equ 09Eh ;# 
   470                           # 1677 "/Applications/microchip/xc8/v1.10/include/pic12f683.h"
   471  009F                     ANSEL equ 09Fh ;# 
   472                           	FNCALL	_main,_ConfigureOscillator
   473                           	FNCALL	_main,_InitApp
   474                           	FNCALL	_main,_printf
   475                           	FNCALL	_printf,_putch
   476                           	FNCALL	_putch,_DelayTXBitUART
   477                           	FNROOT	_main
   478                           	FNCALL	intlevel1,_isr
   479                           	global	intlevel1
   480                           	FNROOT	intlevel1
   481                           	global	_sGPIO
   482                           	global	_GPIO
   483  0005                     _GPIO	set	0x5
   484                           	global	_TRISIO
   485  0085                     _TRISIO	set	0x85
   486                           psect	strings,class=STRING,delta=2
   487                           global __pstrings
   488  0085                     __pstrings:
   489                           ;	global	stringdir,stringtab,__stringbase
   490  0085                     stringtab:
   491                           	global    __stringtab
   492  0085                     __stringtab:
   493                           ;	String table - string pointers are 1 byte each
   494  0085                     stringcode:stringdir:
      + 0085                     stringdir:	
   495  0085  3000               movlw high(stringdir)
   496  0086  008A               movwf pclath
   497  0087  0804               movf fsr,w
   498  0088  0A84               incf fsr
   499  0089  0782               	addwf pc
   500  008A                     __stringbase:
   501  008A  3400               	retlw	0
   502                           psect	strings
   503                           	global    __end_of__stringtab
   504  008B                     __end_of__stringtab:
   505                           	global __stringdata
   506  008B                     __stringdata:
   507                           	
   508  008B                     STR_1:	
   509  008B  3454               	retlw	84	;'T'
   510  008C  3468               	retlw	104	;'h'
   511  008D  3469               	retlw	105	;'i'
   512  008E  3473               	retlw	115	;'s'
   513  008F  3420               	retlw	32	;' '
   514  0090  3469               	retlw	105	;'i'
   515  0091  3473               	retlw	115	;'s'
   516  0092  3420               	retlw	32	;' '
   517  0093  3461               	retlw	97	;'a'
   518  0094  3420               	retlw	32	;' '
   519  0095  3474               	retlw	116	;'t'
   520  0096  3465               	retlw	101	;'e'
   521  0097  3473               	retlw	115	;'s'
   522  0098  3474               	retlw	116	;'t'
   523  0099  340A               	retlw	10
   524  009A  3400               	retlw	0
   525                           psect	strings
   526                           	global __end_of__stringdata
   527  009B                     __end_of__stringdata:
   528                           ; #config settings
   529                           global __CFG_BOREN$OFF
   530  0000                     __CFG_BOREN$OFF equ 0x0
   531                           global __CFG_IESO$OFF
   532  0000                     __CFG_IESO$OFF equ 0x0
   533                           global __CFG_FOSC$INTOSCIO
   534  0000                     __CFG_FOSC$INTOSCIO equ 0x0
   535                           global __CFG_MCLRE$OFF
   536  0000                     __CFG_MCLRE$OFF equ 0x0
   537                           global __CFG_WDTE$OFF
   538  0000                     __CFG_WDTE$OFF equ 0x0
   539                           	file	"/tmp/cgt9xTF8v"
   540                           	line	#
   541                           psect cinit,class=CODE,delta=2
   542                           global start_initialization
   543  00AC                     start_initialization:
   544                           
   545                           global __initialization
   546  00AC                     __initialization:
   547                           psect	bssCOMMON,class=COMMON,space=1
   548                           global __pbssCOMMON
   549  0077                     __pbssCOMMON:
   550  0077                     _errno:
   551  0077                            ds      2
   552                           
   553  0079                     _sGPIO:
   554  0079                            ds      1
   555                           
   556                           ; Clear objects allocated to COMMON
   557                           psect cinit,class=CODE,delta=2,merge=1
   558  00AC  01F7               	clrf	((__pbssCOMMON)+0)&07Fh
   559  00AD  01F8               	clrf	((__pbssCOMMON)+1)&07Fh
   560  00AE  01F9               	clrf	((__pbssCOMMON)+2)&07Fh
   561                           psect cinit,class=CODE,delta=2,merge=1
   562                           global end_of_initialization,__end_of__initialization
   563                           
   564                           ;End of C runtime variable initialization code
   565                           
   566  00AF                     end_of_initialization:
   567  00AF                     __end_of__initialization:clrf status
      + 00AF  0183               	clrf	3
   568  00B0  2810               ljmp _main	;jump to C main() function
   569                           psect	cstackCOMMON,class=COMMON,space=1
   570                           global __pcstackCOMMON
   571  0070                     __pcstackCOMMON:
   572  0070                     ?_ConfigureOscillator:	; 0 bytes @ 0x0
   573  0070                     ?_InitApp:	; 0 bytes @ 0x0
   574  0070                     ?_isr:	; 0 bytes @ 0x0
   575  0070                     ??_isr:	; 0 bytes @ 0x0
   576  0070                     ?_DelayTXBitUART:	; 0 bytes @ 0x0
   577  0070                     ?_putch:	; 0 bytes @ 0x0
   578  0070                     ?_main:	; 1 bytes @ 0x0
   579                           	global	?_printf
   580  0070                     ?_printf:	; 2 bytes @ 0x0
   581  0070                     	ds	4
   582  0074                     ??_ConfigureOscillator:	; 0 bytes @ 0x4
   583  0074                     ??_InitApp:	; 0 bytes @ 0x4
   584  0074                     ??_DelayTXBitUART:	; 0 bytes @ 0x4
   585  0074                     	ds	1
   586  0075                     ??_putch:	; 0 bytes @ 0x5
   587  0075                     	ds	1
   588  0076                     ??_printf:	; 0 bytes @ 0x6
   589  0076                     	ds	1
   590                           psect	cstackBANK0,class=BANK0,space=1
   591                           global __pcstackBANK0
   592  0020                     __pcstackBANK0:
   593                           	global	putch@c
   594  0020                     putch@c:	; 1 bytes @ 0x0
   595  0020                     	ds	1
   596                           	global	putch@bitcount
   597  0021                     putch@bitcount:	; 1 bytes @ 0x1
   598  0021                     	ds	1
   599                           	global	printf@ap
   600  0022                     printf@ap:	; 1 bytes @ 0x2
   601  0022                     	ds	1
   602                           	global	printf@f
   603  0023                     printf@f:	; 1 bytes @ 0x3
   604  0023                     	ds	1
   605                           	global	printf@c
   606  0024                     printf@c:	; 1 bytes @ 0x4
   607  0024                     	ds	1
   608  0025                     ??_main:	; 0 bytes @ 0x5
   609  0025                     	ds	3
   610                           ;!
   611                           ;!Data Sizes:
   612                           ;!    Strings     16
   613                           ;!    Constant    0
   614                           ;!    Data        0
   615                           ;!    BSS         7
   616                           ;!    Persistent  0
   617                           ;!    Stack       0
   618                           ;!
   619                           ;!Auto Spaces:
   620                           ;!    Space          Size  Autos    Used
   621                           ;!    COMMON           14      7      10
   622                           ;!    BANK0            80      8       8
   623                           ;!    BANK1            32      0       0
   624                           
   625                           ;!
   626                           ;!Pointer List with Targets:
   627                           ;!
   628                           ;!    environ	PTR PTR unsigned char  size(2) Largest target is 0
   629                           ;!		 -> NULL(NULL[0]), 
   630                           ;!
   631                           ;!    printf@f	PTR const unsigned char  size(1) Largest target is 16
   632                           ;!		 -> STR_1(CODE[16]), 
   633                           ;!
   634                           ;!    printf@ap	PTR void [1] size(1) Largest target is 2
   635                           ;!		 -> ?_printf(COMMON[2]), 
   636                           ;!
   637                           ;!    S3222$_cp	PTR const unsigned char  size(1) Largest target is 0
   638                           ;!
   639                           ;!    _val._str._cp	PTR const unsigned char  size(1) Largest target is 0
   640                           ;!
   641                           
   642                           
   643                           ;!
   644                           ;!Critical Paths under _main in COMMON
   645                           ;!
   646                           ;!    _main->_printf
   647                           ;!    _printf->_putch
   648                           ;!    _putch->_DelayTXBitUART
   649                           ;!
   650                           ;!Critical Paths under _isr in COMMON
   651                           ;!
   652                           ;!    None.
   653                           ;!
   654                           ;!Critical Paths under _main in BANK0
   655                           ;!
   656                           ;!    _main->_printf
   657                           ;!    _printf->_putch
   658                           ;!
   659                           ;!Critical Paths under _isr in BANK0
   660                           ;!
   661                           ;!    None.
   662                           ;!
   663                           ;!Critical Paths under _main in BANK1
   664                           ;!
   665                           ;!    None.
   666                           ;!
   667                           ;!Critical Paths under _isr in BANK1
   668                           ;!
   669                           ;!    None.
   670                           
   671 ;;
   672 ;;Main: autosize = 0, tempsize = 3, incstack = 0, save=0
   673 ;;
   674                           
   675                           ;!
   676                           ;!Call Graph Tables:
   677                           ;!
   678                           ;! ---------------------------------------------------------------------------------
   679                           ;! (Depth) Function   	        Calls       Base Space   Used Autos Params    Refs
   680                           ;! ---------------------------------------------------------------------------------
   681                           ;! (0) _main                                                 3     3      0     136
   682                           ;!                                              5 BANK0      3     3      0
   683                           ;!                _ConfigureOscillator
   684                           ;!                            _InitApp
   685                           ;!                             _printf
   686                           ;! ---------------------------------------------------------------------------------
   687                           ;! (1) _ConfigureOscillator                                  0     0      0       0
   688                           ;! ---------------------------------------------------------------------------------
   689                           ;! (1) _InitApp                                              0     0      0       0
   690                           ;! ---------------------------------------------------------------------------------
   691                           ;! (1) _printf                                              10    10      0     136
   692                           ;!                                              6 COMMON     1     1      0
   693                           ;!                                              2 BANK0      3     3      0
   694                           ;!                              _putch
   695                           ;! ---------------------------------------------------------------------------------
   696                           ;! (2) _putch                                                3     3      0      68
   697                           ;!                                              5 COMMON     1     1      0
   698                           ;!                                              0 BANK0      2     2      0
   699                           ;!                     _DelayTXBitUART
   700                           ;! ---------------------------------------------------------------------------------
   701                           ;! (3) _DelayTXBitUART                                       1     1      0       0
   702                           ;!                                              4 COMMON     1     1      0
   703                           ;! ---------------------------------------------------------------------------------
   704                           ;! Estimated maximum stack depth 3
   705                           ;! ---------------------------------------------------------------------------------
   706                           ;! (Depth) Function   	        Calls       Base Space   Used Autos Params    Refs
   707                           ;! ---------------------------------------------------------------------------------
   708                           ;! (4) _isr                                                  4     4      0       0
   709                           ;!                                              0 COMMON     4     4      0
   710                           ;! ---------------------------------------------------------------------------------
   711                           ;! Estimated maximum stack depth 4
   712                           ;! ---------------------------------------------------------------------------------
   713                           ;!
   714                           ;! Call Graph Graphs:
   715                           ;!
   716                           ;! _main (ROOT)
   717                           ;!   _ConfigureOscillator
   718                           ;!   _InitApp
   719                           ;!   _printf
   720                           ;!     _putch
   721                           ;!       _DelayTXBitUART
   722                           ;!
   723                           ;! _isr (ROOT)
   724                           ;!
   725                           
   726                           ;! Address spaces:
   727                           
   728                           ;!Name               Size   Autos  Total    Cost      Usage
   729                           ;!BITCOMMON            E      0       0       0        0.0%
   730                           ;!EEDATA             100      0       0       0        0.0%
   731                           ;!NULL                 0      0       0       0        0.0%
   732                           ;!CODE                 0      0       0       0        0.0%
   733                           ;!COMMON               E      7       A       1       71.4%
   734                           ;!BITSFR0              0      0       0       1        0.0%
   735                           ;!SFR0                 0      0       0       1        0.0%
   736                           ;!BITSFR1              0      0       0       2        0.0%
   737                           ;!SFR1                 0      0       0       2        0.0%
   738                           ;!STACK                0      0       3       2        0.0%
   739                           ;!BITBANK0            50      0       0       3        0.0%
   740                           ;!BANK0               50      8       8       4       10.0%
   741                           ;!BANK1               20      0       0       5        0.0%
   742                           ;!ABS                  0      0      12       6        0.0%
   743                           ;!BITBANK1            20      0       0       7        0.0%
   744                           ;!DATA                 0      0      15       8        0.0%
   745                           
   746                           	global	_main
   747                           
   748 ;; *************** function _main *****************
   749 ;; Defined at:
   750 ;;		line 114 in file "main.c"
   751 ;; Parameters:    Size  Location     Type
   752 ;;		None
   753 ;; Auto vars:     Size  Location     Type
   754 ;;		None
   755 ;; Return value:  Size  Location     Type
   756 ;;                  1    wreg      unsigned char 
   757 ;; Registers used:
   758 ;;		wreg, fsr0l, fsr0h, status,2, status,0, pclath, cstack
   759 ;; Tracked objects:
   760 ;;		On entry : 17F/0
   761 ;;		On exit  : 0/0
   762 ;;		Unchanged: 0/0
   763 ;; Data sizes:     COMMON   BANK0   BANK1
   764 ;;      Params:         0       0       0
   765 ;;      Locals:         0       0       0
   766 ;;      Temps:          0       3       0
   767 ;;      Totals:         0       3       0
   768 ;;Total ram usage:        3 bytes
   769 ;; Hardware stack levels required when called:    4
   770 ;; This function calls:
   771 ;;		_ConfigureOscillator
   772 ;;		_InitApp
   773 ;;		_printf
   774 ;; This function is called by:
   775 ;;		Startup code after reset
   776 ;; This function uses a non-reentrant model
   777 ;;
   778                           psect	maintext,global,class=CODE,delta=2,split=1
   779                           global __pmaintext
   780  0010                     __pmaintext:	;psect for function _main
   781                           psect	maintext
   782                           	file	"main.c"
   783                           	line	114
   784                           	global	__size_of_main
   785  0030                     	__size_of_main	equ	__end_of_main-_main
   786                           	
   787  0010                     _main:	
   788                           	opt	stack 4
   789                           ; Regs used in _main: [wreg-fsr0h+status,2+status,0+pclath+cstack]
   790                           	line	116
   791                           	
   792  0010                     l3317:	
   793                           ;main.c: 116: ConfigureOscillator();
   794  0010  20B4               	fcall	_ConfigureOscillator
   795                           	line	119
   796                           ;main.c: 119: InitApp();
   797  0011  20B1               	fcall	_InitApp
   798  0012  2813               	goto	l3319
   799                           	line	125
   800                           ;main.c: 125: while(1)
   801                           	
   802  0013                     l1383:	
   803                           	line	127
   804                           	
   805  0013                     l3319:	
   806                           ;main.c: 126: {
   807                           ;main.c: 127: _delay((unsigned long)((1000)*(4000000/4000.0)));
   808                           	opt asmopt_off
   809  0013  3006               movlw  6
   810  0014  1283               	bcf	status, 5	;RP0=0, select bank0
   811  0015  00A7               movwf	((??_main+0)+0+2),f
   812  0016  3013               movlw	19
   813  0017  00A6               movwf	((??_main+0)+0+1),f
   814  0018  30B1               	movlw	177
   815  0019  00A5               movwf	((??_main+0)+0),f
   816  001A                     u77:
   817  001A  0BA5               	decfsz	((??_main+0)+0),f
   818  001B  281A               	goto	u77
   819  001C  0BA6               	decfsz	((??_main+0)+0+1),f
   820  001D  281A               	goto	u77
   821  001E  0BA7               	decfsz	((??_main+0)+0+2),f
   822  001F  281A               	goto	u77
   823  0020  2821               	nop2
   824                           opt asmopt_on
   825                           
   826                           	line	139
   827                           	
   828  0021                     l3321:	
   829                           ;main.c: 139: printf("This is a test\n");
   830  0021  3001               	movlw	((STR_1-__stringbase))&0ffh
   831  0022  206A               	fcall	_printf
   832                           	line	142
   833                           	
   834  0023                     l3323:	
   835                           ;main.c: 142: sGPIO.GP2 = 1;
   836  0023  1579               	bsf	(_sGPIO),2
   837                           	line	143
   838                           	
   839  0024                     l3325:	
   840                           ;main.c: 143: GPIO = sGPIO.port;
   841  0024  0879               	movf	(_sGPIO),w
   842  0025  1283               	bcf	status, 5	;RP0=0, select bank0
   843  0026  0085               	movwf	(5)	;volatile
   844                           	line	145
   845                           	
   846  0027                     l3327:	
   847                           ;main.c: 145: _delay((unsigned long)((100)*(4000000/4000.0)));
   848                           	opt asmopt_off
   849  0027  3082               movlw	130
   850  0028  00A6               movwf	((??_main+0)+0+1),f
   851  0029  30DD               	movlw	221
   852  002A  00A5               movwf	((??_main+0)+0),f
   853  002B                     u87:
   854  002B  0BA5               	decfsz	((??_main+0)+0),f
   855  002C  282B               	goto	u87
   856  002D  0BA6               	decfsz	((??_main+0)+0+1),f
   857  002E  282B               	goto	u87
   858  002F  2830               	nop2
   859                           opt asmopt_on
   860                           
   861                           	line	146
   862                           	
   863  0030                     l3329:	
   864                           ;main.c: 146: sGPIO.GP2 = 0;
   865  0030  1179               	bcf	(_sGPIO),2
   866                           	line	147
   867                           	
   868  0031                     l3331:	
   869                           ;main.c: 147: GPIO = sGPIO.port;
   870  0031  0879               	movf	(_sGPIO),w
   871  0032  1283               	bcf	status, 5	;RP0=0, select bank0
   872  0033  0085               	movwf	(5)	;volatile
   873                           	line	149
   874                           	
   875  0034                     l3333:	
   876                           ;main.c: 149: _delay((unsigned long)((100)*(4000000/4000.0)));
   877                           	opt asmopt_off
   878  0034  3082               movlw	130
   879  0035  00A6               movwf	((??_main+0)+0+1),f
   880  0036  30DD               	movlw	221
   881  0037  00A5               movwf	((??_main+0)+0),f
   882  0038                     u97:
   883  0038  0BA5               	decfsz	((??_main+0)+0),f
   884  0039  2838               	goto	u97
   885  003A  0BA6               	decfsz	((??_main+0)+0+1),f
   886  003B  2838               	goto	u97
   887  003C  283D               	nop2
   888                           opt asmopt_on
   889                           
   890  003D  2813               	goto	l3319
   891                           	line	151
   892                           	
   893  003E                     l1384:	
   894                           	line	125
   895  003E  2813               	goto	l3319
   896                           	
   897  003F                     l1385:	
   898                           	line	154
   899                           ;main.c: 151: }
   900                           ;main.c: 152: return 0;
   901                           ;	Return value of _main is never used
   902                           	
   903  003F                     l1386:	
   904                           	global	start
   905  003F  280F               	ljmp	start
   906                           	opt stack 0
   907                           GLOBAL	__end_of_main
   908  0040                     	__end_of_main:
   909                           	signat	_main,89
   910                           	global	_ConfigureOscillator
   911                           
   912 ;; *************** function _ConfigureOscillator *****************
   913 ;; Defined at:
   914 ;;		line 14 in file "system.c"
   915 ;; Parameters:    Size  Location     Type
   916 ;;		None
   917 ;; Auto vars:     Size  Location     Type
   918 ;;		None
   919 ;; Return value:  Size  Location     Type
   920 ;;		None               void
   921 ;; Registers used:
   922 ;;		None
   923 ;; Tracked objects:
   924 ;;		On entry : 0/0
   925 ;;		On exit  : 0/0
   926 ;;		Unchanged: 0/0
   927 ;; Data sizes:     COMMON   BANK0   BANK1
   928 ;;      Params:         0       0       0
   929 ;;      Locals:         0       0       0
   930 ;;      Temps:          0       0       0
   931 ;;      Totals:         0       0       0
   932 ;;Total ram usage:        0 bytes
   933 ;; Hardware stack levels used:    1
   934 ;; Hardware stack levels required when called:    1
   935 ;; This function calls:
   936 ;;		Nothing
   937 ;; This function is called by:
   938 ;;		_main
   939 ;; This function uses a non-reentrant model
   940 ;;
   941                           psect	text179,local,class=CODE,delta=2,merge=1
   942                           global __ptext179
   943  00B4                     __ptext179:	;psect for function _ConfigureOscillator
   944                           psect	text179
   945                           	file	"system.c"
   946                           	line	14
   947                           	global	__size_of_ConfigureOscillator
   948  0001                     	__size_of_ConfigureOscillator	equ	__end_of_ConfigureOscillator-_ConfigureOscillator
   949                           	
   950  00B4                     _ConfigureOscillator:	
   951                           	opt	stack 6
   952                           ; Regs used in _ConfigureOscillator: []
   953                           	line	35
   954                           	
   955  00B4                     l1841:	
   956  00B4  0008               	return
   957                           	opt stack 0
   958                           GLOBAL	__end_of_ConfigureOscillator
   959  00B5                     	__end_of_ConfigureOscillator:
   960                           	signat	_ConfigureOscillator,88
   961                           	global	_InitApp
   962                           
   963 ;; *************** function _InitApp *****************
   964 ;; Defined at:
   965 ;;		line 18 in file "user.c"
   966 ;; Parameters:    Size  Location     Type
   967 ;;		None
   968 ;; Auto vars:     Size  Location     Type
   969 ;;		None
   970 ;; Return value:  Size  Location     Type
   971 ;;		None               void
   972 ;; Registers used:
   973 ;;		status,2
   974 ;; Tracked objects:
   975 ;;		On entry : 0/0
   976 ;;		On exit  : 0/0
   977 ;;		Unchanged: 0/0
   978 ;; Data sizes:     COMMON   BANK0   BANK1
   979 ;;      Params:         0       0       0
   980 ;;      Locals:         0       0       0
   981 ;;      Temps:          0       0       0
   982 ;;      Totals:         0       0       0
   983 ;;Total ram usage:        0 bytes
   984 ;; Hardware stack levels used:    1
   985 ;; Hardware stack levels required when called:    1
   986 ;; This function calls:
   987 ;;		Nothing
   988 ;; This function is called by:
   989 ;;		_main
   990 ;; This function uses a non-reentrant model
   991 ;;
   992                           psect	text180,local,class=CODE,delta=2,merge=1
   993                           global __ptext180
   994  00B1                     __ptext180:	;psect for function _InitApp
   995                           psect	text180
   996                           	file	"user.c"
   997                           	line	18
   998                           	global	__size_of_InitApp
   999  0003                     	__size_of_InitApp	equ	__end_of_InitApp-_InitApp
  1000                           	
  1001  00B1                     _InitApp:	
  1002                           	opt	stack 6
  1003                           ; Regs used in _InitApp: [status,2]
  1004                           	line	23
  1005                           	
  1006  00B1                     l3241:	
  1007                           ;user.c: 23: TRISIO = 0x00;
  1008  00B1  1683               	bsf	status, 5	;RP0=1, select bank1
  1009  00B2  0185               	clrf	(133)^080h	;volatile
  1010                           	line	28
  1011                           	
  1012  00B3                     l2296:	
  1013  00B3  0008               	return
  1014                           	opt stack 0
  1015                           GLOBAL	__end_of_InitApp
  1016  00B4                     	__end_of_InitApp:
  1017                           	signat	_InitApp,88
  1018                           	global	_printf
  1019                           
  1020 ;; *************** function _printf *****************
  1021 ;; Defined at:
  1022 ;;		line 465 in file "/Applications/microchip/xc8/v1.10/sources/doprnt.c"
  1023 ;; Parameters:    Size  Location     Type
  1024 ;;  f               1    wreg     PTR const unsigned char 
  1025 ;;		 -> STR_1(16), 
  1026 ;; Auto vars:     Size  Location     Type
  1027 ;;  f               1    3[BANK0 ] PTR const unsigned char 
  1028 ;;		 -> STR_1(16), 
  1029 ;;  _val            4    0        struct .
  1030 ;;  c               1    4[BANK0 ] char 
  1031 ;;  ap              1    2[BANK0 ] PTR void [1]
  1032 ;;		 -> ?_printf(2), 
  1033 ;;  flag            1    0        unsigned char 
  1034 ;;  prec            1    0        char 
  1035 ;; Return value:  Size  Location     Type
  1036 ;;                  2  959[COMMON] int 
  1037 ;; Registers used:
  1038 ;;		wreg, fsr0l, fsr0h, status,2, status,0, pclath, cstack
  1039 ;; Tracked objects:
  1040 ;;		On entry : 0/0
  1041 ;;		On exit  : 0/0
  1042 ;;		Unchanged: 0/0
  1043 ;; Data sizes:     COMMON   BANK0   BANK1
  1044 ;;      Params:         0       0       0
  1045 ;;      Locals:         0       3       0
  1046 ;;      Temps:          1       0       0
  1047 ;;      Totals:         1       3       0
  1048 ;;Total ram usage:        4 bytes
  1049 ;; Hardware stack levels used:    1
  1050 ;; Hardware stack levels required when called:    3
  1051 ;; This function calls:
  1052 ;;		_putch
  1053 ;; This function is called by:
  1054 ;;		_main
  1055 ;; This function uses a non-reentrant model
  1056 ;;
  1057                           psect	text181,local,class=CODE,delta=2,merge=1
  1058                           global __ptext181
  1059  006A                     __ptext181:	;psect for function _printf
  1060                           psect	text181
  1061                           	file	"/Applications/microchip/xc8/v1.10/sources/doprnt.c"
  1062                           	line	465
  1063                           	global	__size_of_printf
  1064  001B                     	__size_of_printf	equ	__end_of_printf-_printf
  1065                           	
  1066  006A                     _printf:	
  1067                           	opt	stack 4
  1068                           ; Regs used in _printf: [wreg-fsr0h+status,2+status,0+pclath+cstack]
  1069                           ;printf@f stored from wreg
  1070                           	line	542
  1071  006A  1283               	bcf	status, 5	;RP0=0, select bank0
  1072  006B  00A3               	movwf	(printf@f)
  1073                           	
  1074  006C                     l3335:	
  1075                           ;doprnt.c: 466: va_list ap;
  1076                           ;doprnt.c: 499: signed char c;
  1077                           ;doprnt.c: 506: signed char prec;
  1078                           ;doprnt.c: 508: unsigned char flag;
  1079                           ;doprnt.c: 527: union {
  1080                           ;doprnt.c: 528: unsigned int _val;
  1081                           ;doprnt.c: 529: struct {
  1082                           ;doprnt.c: 530: const char * _cp;
  1083                           ;doprnt.c: 531: unsigned _len;
  1084                           ;doprnt.c: 532: } _str;
  1085                           ;doprnt.c: 533: } _val;
  1086                           ;doprnt.c: 542: *ap = __va_start();
  1087  006C  3070               	movlw	(?_printf)&0ffh
  1088  006D  00F6               	movwf	(??_printf+0)+0
  1089  006E  0876               	movf	(??_printf+0)+0,w
  1090  006F  00A2               	movwf	(printf@ap)
  1091                           	line	545
  1092                           ;doprnt.c: 545: while(c = *f++) {
  1093  0070  2874               	goto	l3339
  1094                           	
  1095  0071                     l2310:	
  1096                           	line	550
  1097                           	
  1098  0071                     l3337:	
  1099                           ;doprnt.c: 549: {
  1100                           ;doprnt.c: 550: (putch(c) );
  1101  0071  0824               	movf	(printf@c),w
  1102  0072  2040               	fcall	_putch
  1103                           	line	551
  1104                           ;doprnt.c: 551: continue;
  1105  0073  2874               	goto	l3339
  1106                           	line	1530
  1107                           ;doprnt.c: 552: }
  1108                           ;doprnt.c: 1422: {
  1109                           	
  1110  0074                     l2309:	
  1111                           	line	545
  1112                           	
  1113  0074                     l3339:	
  1114  0074  3001               	movlw	01h
  1115  0075  1283               	bcf	status, 5	;RP0=0, select bank0
  1116  0076  07A3               	addwf	(printf@f),f
  1117  0077  30FF               	movlw	-01h
  1118  0078  0723               	addwf	(printf@f),w
  1119  0079  0084               	movwf	fsr0
  1120  007A  2085               	fcall	stringdir
  1121  007B  00F6               	movwf	(??_printf+0)+0
  1122  007C  0876               	movf	(??_printf+0)+0,w
  1123  007D  00A4               	movwf	(printf@c)
  1124  007E  08A4               	movf	((printf@c)),f
  1125  007F  1D03               	skipz
  1126  0080  2882               	goto	u61
  1127  0081  2883               	goto	u60
  1128  0082                     u61:
  1129  0082  2871               	goto	l3337
  1130  0083                     u60:
  1131  0083  2884               	goto	l2312
  1132                           	
  1133  0084                     l2311:	
  1134                           	line	1538
  1135                           ;doprnt.c: 1469: }
  1136                           ;doprnt.c: 1530: }
  1137                           ;doprnt.c: 1537: return 0;
  1138                           ;	Return value of _printf is never used
  1139                           	
  1140  0084                     l2312:	
  1141  0084  0008               	return
  1142                           	opt stack 0
  1143                           GLOBAL	__end_of_printf
  1144  0085                     	__end_of_printf:
  1145                           	signat	_printf,602
  1146                           	global	_putch
  1147                           
  1148 ;; *************** function _putch *****************
  1149 ;; Defined at:
  1150 ;;		line 87 in file "main.c"
  1151 ;; Parameters:    Size  Location     Type
  1152 ;;  c               1    wreg     unsigned char 
  1153 ;; Auto vars:     Size  Location     Type
  1154 ;;  c               1    0[BANK0 ] unsigned char 
  1155 ;;  bitcount        1    1[BANK0 ] unsigned char 
  1156 ;; Return value:  Size  Location     Type
  1157 ;;		None               void
  1158 ;; Registers used:
  1159 ;;		wreg, status,2, status,0, pclath, cstack
  1160 ;; Tracked objects:
  1161 ;;		On entry : 0/0
  1162 ;;		On exit  : 0/0
  1163 ;;		Unchanged: 0/0
  1164 ;; Data sizes:     COMMON   BANK0   BANK1
  1165 ;;      Params:         0       0       0
  1166 ;;      Locals:         0       2       0
  1167 ;;      Temps:          1       0       0
  1168 ;;      Totals:         1       2       0
  1169 ;;Total ram usage:        3 bytes
  1170 ;; Hardware stack levels used:    1
  1171 ;; Hardware stack levels required when called:    2
  1172 ;; This function calls:
  1173 ;;		_DelayTXBitUART
  1174 ;; This function is called by:
  1175 ;;		_printf
  1176 ;; This function uses a non-reentrant model
  1177 ;;
  1178                           psect	text182,local,class=CODE,delta=2,merge=1
  1179                           global __ptext182
  1180  0040                     __ptext182:	;psect for function _putch
  1181                           psect	text182
  1182                           	file	"main.c"
  1183                           	line	87
  1184                           	global	__size_of_putch
  1185  002A                     	__size_of_putch	equ	__end_of_putch-_putch
  1186                           	
  1187  0040                     _putch:	
  1188                           	opt	stack 4
  1189                           ; Regs used in _putch: [wreg+status,2+status,0+pclath+cstack]
  1190                           ;putch@c stored from wreg
  1191                           	line	89
  1192  0040  1283               	bcf	status, 5	;RP0=0, select bank0
  1193  0041  00A0               	movwf	(putch@c)
  1194                           	
  1195  0042                     l3297:	
  1196                           ;main.c: 89: unsigned char bitcount = 8;
  1197  0042  3008               	movlw	(08h)
  1198  0043  00F5               	movwf	(??_putch+0)+0
  1199  0044  0875               	movf	(??_putch+0)+0,w
  1200  0045  00A1               	movwf	(putch@bitcount)
  1201                           	line	92
  1202                           	
  1203  0046                     l3299:	
  1204                           ;main.c: 92: sGPIO.GP1 = 0;
  1205  0046  10F9               	bcf	(_sGPIO),1
  1206                           	line	93
  1207                           ;main.c: 93: GPIO = sGPIO.port;
  1208  0047  0879               	movf	(_sGPIO),w
  1209  0048  0085               	movwf	(5)	;volatile
  1210                           	line	94
  1211                           	
  1212  0049                     l3301:	
  1213                           ;main.c: 94: DelayTXBitUART();
  1214  0049  20A6               	fcall	_DelayTXBitUART
  1215                           	line	96
  1216                           ;main.c: 96: while (bitcount--) {
  1217  004A  285C               	goto	l3311
  1218                           	
  1219  004B                     l1378:	
  1220                           	line	97
  1221                           	
  1222  004B                     l3303:	
  1223                           ;main.c: 97: sGPIO.GP1 = (c & 0x01);
  1224  004B  1283               	bcf	status, 5	;RP0=0, select bank0
  1225  004C  0820               	movf	(putch@c),w
  1226  004D  3901               	andlw	01h
  1227  004E  00F5               	movwf	(??_putch+0)+0
  1228  004F  0DF5               	rlf	(??_putch+0)+0,f
  1229  0050  0879               	movf	(_sGPIO),w
  1230  0051  0675               	xorwf	(??_putch+0)+0,w
  1231  0052  39FD               	andlw	not (((1<<1)-1)<<1)
  1232  0053  0675               	xorwf	(??_putch+0)+0,w
  1233  0054  00F9               	movwf	(_sGPIO)
  1234                           	line	98
  1235                           	
  1236  0055                     l3305:	
  1237                           ;main.c: 98: GPIO = sGPIO.port;
  1238  0055  0879               	movf	(_sGPIO),w
  1239  0056  0085               	movwf	(5)	;volatile
  1240                           	line	99
  1241                           	
  1242  0057                     l3307:	
  1243                           ;main.c: 99: DelayTXBitUART();
  1244  0057  20A6               	fcall	_DelayTXBitUART
  1245                           	line	100
  1246                           	
  1247  0058                     l3309:	
  1248                           ;main.c: 100: c>>=1;
  1249  0058  1003               	clrc
  1250  0059  1283               	bcf	status, 5	;RP0=0, select bank0
  1251  005A  0CA0               	rrf	(putch@c),f
  1252                           
  1253  005B  285C               	goto	l3311
  1254                           	line	101
  1255                           	
  1256  005C                     l1377:	
  1257                           	line	96
  1258                           	
  1259  005C                     l3311:	
  1260  005C  3001               	movlw	low(01h)
  1261  005D  1283               	bcf	status, 5	;RP0=0, select bank0
  1262  005E  02A1               	subwf	(putch@bitcount),f
  1263  005F  0821               	movf	((putch@bitcount)),w
  1264  0060  3AFF               	xorlw	0FFh
  1265  0061  1D03               	skipz
  1266  0062  2864               	goto	u51
  1267  0063  2865               	goto	u50
  1268  0064                     u51:
  1269  0064  284B               	goto	l3303
  1270  0065                     u50:
  1271                           	
  1272  0065                     l1379:	
  1273                           	line	103
  1274                           ;main.c: 101: }
  1275                           ;main.c: 103: sGPIO.GP1 = 1;
  1276  0065  14F9               	bsf	(_sGPIO),1
  1277                           	line	104
  1278                           	
  1279  0066                     l3313:	
  1280                           ;main.c: 104: GPIO = sGPIO.port;
  1281  0066  0879               	movf	(_sGPIO),w
  1282  0067  0085               	movwf	(5)	;volatile
  1283                           	line	105
  1284                           	
  1285  0068                     l3315:	
  1286                           ;main.c: 105: DelayTXBitUART();
  1287  0068  20A6               	fcall	_DelayTXBitUART
  1288                           	line	107
  1289                           	
  1290  0069                     l1380:	
  1291  0069  0008               	return
  1292                           	opt stack 0
  1293                           GLOBAL	__end_of_putch
  1294  006A                     	__end_of_putch:
  1295                           	signat	_putch,4216
  1296                           	global	_DelayTXBitUART
  1297                           
  1298 ;; *************** function _DelayTXBitUART *****************
  1299 ;; Defined at:
  1300 ;;		line 55 in file "main.c"
  1301 ;; Parameters:    Size  Location     Type
  1302 ;;		None
  1303 ;; Auto vars:     Size  Location     Type
  1304 ;;		None
  1305 ;; Return value:  Size  Location     Type
  1306 ;;		None               void
  1307 ;; Registers used:
  1308 ;;		wreg
  1309 ;; Tracked objects:
  1310 ;;		On entry : 0/0
  1311 ;;		On exit  : 0/0
  1312 ;;		Unchanged: 0/0
  1313 ;; Data sizes:     COMMON   BANK0   BANK1
  1314 ;;      Params:         0       0       0
  1315 ;;      Locals:         0       0       0
  1316 ;;      Temps:          1       0       0
  1317 ;;      Totals:         1       0       0
  1318 ;;Total ram usage:        1 bytes
  1319 ;; Hardware stack levels used:    1
  1320 ;; Hardware stack levels required when called:    1
  1321 ;; This function calls:
  1322 ;;		Nothing
  1323 ;; This function is called by:
  1324 ;;		_putch
  1325 ;; This function uses a non-reentrant model
  1326 ;;
  1327                           psect	text183,local,class=CODE,delta=2,merge=1
  1328                           global __ptext183
  1329  00A6                     __ptext183:	;psect for function _DelayTXBitUART
  1330                           psect	text183
  1331                           	file	"main.c"
  1332                           	line	55
  1333                           	global	__size_of_DelayTXBitUART
  1334  0006                     	__size_of_DelayTXBitUART	equ	__end_of_DelayTXBitUART-_DelayTXBitUART
  1335                           	
  1336  00A6                     _DelayTXBitUART:	
  1337                           	opt	stack 4
  1338                           ; Regs used in _DelayTXBitUART: [wreg]
  1339                           	line	62
  1340                           	
  1341  00A6                     l3295:	
  1342                           ;main.c: 62: _delay(77);
  1343                           	opt asmopt_off
  1344  00A6  3019               movlw	25
  1345  00A7  00F4               movwf	(??_DelayTXBitUART+0)+0,f
  1346  00A8                     u107:
  1347  00A8  0BF4               decfsz	(??_DelayTXBitUART+0)+0,f
  1348  00A9  28A8               	goto	u107
  1349  00AA  0000               	nop
  1350                           opt asmopt_on
  1351                           
  1352                           	line	73
  1353                           	
  1354  00AB                     l1374:	
  1355  00AB  0008               	return
  1356                           	opt stack 0
  1357                           GLOBAL	__end_of_DelayTXBitUART
  1358  00AC                     	__end_of_DelayTXBitUART:
  1359                           	signat	_DelayTXBitUART,88
  1360                           	global	_isr
  1361                           
  1362 ;; *************** function _isr *****************
  1363 ;; Defined at:
  1364 ;;		line 14 in file "interrupts.c"
  1365 ;; Parameters:    Size  Location     Type
  1366 ;;		None
  1367 ;; Auto vars:     Size  Location     Type
  1368 ;;		None
  1369 ;; Return value:  Size  Location     Type
  1370 ;;		None               void
  1371 ;; Registers used:
  1372 ;;		None
  1373 ;; Tracked objects:
  1374 ;;		On entry : 0/0
  1375 ;;		On exit  : 0/0
  1376 ;;		Unchanged: 0/0
  1377 ;; Data sizes:     COMMON   BANK0   BANK1
  1378 ;;      Params:         0       0       0
  1379 ;;      Locals:         0       0       0
  1380 ;;      Temps:          4       0       0
  1381 ;;      Totals:         4       0       0
  1382 ;;Total ram usage:        4 bytes
  1383 ;; Hardware stack levels used:    1
  1384 ;; This function calls:
  1385 ;;		Nothing
  1386 ;; This function is called by:
  1387 ;;		Interrupt level 1
  1388 ;; This function uses a non-reentrant model
  1389 ;;
  1390                           psect	text184,local,class=CODE,delta=2,merge=1
  1391                           global __ptext184
  1392  009B                     __ptext184:	;psect for function _isr
  1393                           psect	text184
  1394                           	file	"interrupts.c"
  1395                           	line	14
  1396                           	global	__size_of_isr
  1397  000B                     	__size_of_isr	equ	__end_of_isr-_isr
  1398                           	
  1399  009B                     _isr:	
  1400                           	opt	stack 4
  1401                           ; Regs used in _isr: []
  1402                           psect	intentry,class=CODE,delta=2
  1403                           global __pintentry
  1404  0004                     __pintentry:
  1405                           global interrupt_function
  1406  0004                     interrupt_function:
  1407                           	global saved_w
  1408  007E                     	saved_w	set	btemp+0
  1409  0004  00FE               	movwf	saved_w
  1410  0005  0E03               	swapf	status,w
  1411  0006  00F0               	movwf	(??_isr+0)
  1412  0007  0804               	movf	fsr0,w
  1413  0008  00F1               	movwf	(??_isr+1)
  1414  0009  080A               	movf	pclath,w
  1415  000A  00F2               	movwf	(??_isr+2)
  1416  000B  1283               	bcf	status, 5	;RP0=0, select bank0
  1417  000C  087F               	movf	btemp+1,w
  1418  000D  00F3               	movwf	(??_isr+3)
  1419  000E  289B               	ljmp	_isr
  1420                           psect	text184
  1421                           	line	40
  1422                           	
  1423  009B                     i1l907:	
  1424  009B  0873               	movf	(??_isr+3),w
  1425  009C  00FF               	movwf	btemp+1
  1426  009D  0872               	movf	(??_isr+2),w
  1427  009E  008A               	movwf	pclath
  1428  009F  0871               	movf	(??_isr+1),w
  1429  00A0  0084               	movwf	fsr0
  1430  00A1  0E70               	swapf	(??_isr+0)^0FFFFFF80h,w
  1431  00A2  0083               	movwf	status
  1432  00A3  0EFE               	swapf	saved_w,f
  1433  00A4  0E7E               	swapf	saved_w,w
  1434  00A5  0009               	retfie
  1435                           	opt stack 0
  1436                           GLOBAL	__end_of_isr
  1437  00A6                     	__end_of_isr:
  1438                           	signat	_isr,88
  1439                           psect	text185,local,class=CODE,delta=2,merge=1
  1440                           global __ptext185
  1441  0000                     __ptext185:	;psect for function _isr
  1442                           	global	btemp
  1443  007E                     	btemp set 07Eh
  1444                           
  1445                           	DABS	1,126,2	;btemp
  1446                           	global	wtemp0
  1447  007E                     	wtemp0 set btemp


Data Sizes:
    Strings     16
    Constant    0
    Data        0
    BSS         7
    Persistent  0
    Stack       0

Auto Spaces:
    Space          Size  Autos    Used
    COMMON           14      7      10
    BANK0            80      8       8
    BANK1            32      0       0

Pointer List with Targets:

    environ	PTR PTR unsigned char  size(2) Largest target is 0
		 -> NULL(NULL[0]), 

    printf@f	PTR const unsigned char  size(1) Largest target is 16
		 -> STR_1(CODE[16]), 

    printf@ap	PTR void [1] size(1) Largest target is 2
		 -> ?_printf(COMMON[2]), 

    S3222$_cp	PTR const unsigned char  size(1) Largest target is 0

    _val._str._cp	PTR const unsigned char  size(1) Largest target is 0


Critical Paths under _main in COMMON

    _main->_printf
    _printf->_putch
    _putch->_DelayTXBitUART

Critical Paths under _isr in COMMON

    None.

Critical Paths under _main in BANK0

    _main->_printf
    _printf->_putch

Critical Paths under _isr in BANK0

    None.

Critical Paths under _main in BANK1

    None.

Critical Paths under _isr in BANK1

    None.

Call Graph Tables:

 ---------------------------------------------------------------------------------
 (Depth) Function   	        Calls       Base Space   Used Autos Params    Refs
 ---------------------------------------------------------------------------------
 (0) _main                                                 3     3      0     136
                                              5 BANK0      3     3      0
                _ConfigureOscillator
                            _InitApp
                             _printf
 ---------------------------------------------------------------------------------
 (1) _ConfigureOscillator                                  0     0      0       0
 ---------------------------------------------------------------------------------
 (1) _InitApp                                              0     0      0       0
 ---------------------------------------------------------------------------------
 (1) _printf                                              10    10      0     136
                                              6 COMMON     1     1      0
                                              2 BANK0      3     3      0
                              _putch
 ---------------------------------------------------------------------------------
 (2) _putch                                                3     3      0      68
                                              5 COMMON     1     1      0
                                              0 BANK0      2     2      0
                     _DelayTXBitUART
 ---------------------------------------------------------------------------------
 (3) _DelayTXBitUART                                       1     1      0       0
                                              4 COMMON     1     1      0
 ---------------------------------------------------------------------------------
 Estimated maximum stack depth 3
 ---------------------------------------------------------------------------------
 (Depth) Function   	        Calls       Base Space   Used Autos Params    Refs
 ---------------------------------------------------------------------------------
 (4) _isr                                                  4     4      0       0
                                              0 COMMON     4     4      0
 ---------------------------------------------------------------------------------
 Estimated maximum stack depth 4
 ---------------------------------------------------------------------------------

 Call Graph Graphs:

 _main (ROOT)
   _ConfigureOscillator
   _InitApp
   _printf
     _putch
       _DelayTXBitUART

 _isr (ROOT)

 Address spaces:
Name               Size   Autos  Total    Cost      Usage
BITCOMMON            E      0       0       0        0.0%
EEDATA             100      0       0       0        0.0%
NULL                 0      0       0       0        0.0%
CODE                 0      0       0       0        0.0%
COMMON               E      7       A       1       71.4%
BITSFR0              0      0       0       1        0.0%
SFR0                 0      0       0       1        0.0%
BITSFR1              0      0       0       2        0.0%
SFR1                 0      0       0       2        0.0%
STACK                0      0       3       2        0.0%
BITBANK0            50      0       0       3        0.0%
BANK0               50      8       8       4       10.0%
BANK1               20      0       0       5        0.0%
ABS                  0      0      12       6        0.0%
BITBANK1            20      0       0       7        0.0%
DATA                 0      0      15       8        0.0%


Microchip Technology PIC Macro Assembler V1.10 build 47796 
Symbol Table                                                                                   Sun Nov  4 22:09:02 2012

                           pc 0002                            u50 0065                            u51 0064  
                          u60 0083                            u61 0082                            u77 001A  
                          u87 002B                            u97 0038                            fsr 0004  
                         u107 00A8                           _isr 009B                           fsr0 0004  
                        l2310 0071                          l2311 0084                          l2312 0084  
                        l1380 0069                          l3301 0049                          l2309 0074  
                        l1374 00AB                          l3303 004B                          l3311 005C  
                        l1383 0013                          l1384 003E                          l3313 0066  
                        l1377 005C                          l3305 0055                          l3241 00B1  
                        l1385 003F                          l3321 0021                          l1378 004B  
                        l1386 003F                          l3315 0068                          l1379 0065  
                        l3307 0057                          l3331 0031                          l3323 0023  
                        l3309 0058                          l3333 0034                          l3325 0024  
                        l3317 0010                          l3335 006C                          l3327 0027  
                        l3319 0013                          l2296 00B3                          l3337 0071  
                        l1841 00B4                          l3329 0030                          l3339 0074  
                        l3295 00A6                          l3297 0042                          l3299 0046  
                        ?_isr 0070                          STR_1 008B                          _GPIO 0005  
                        _main 0010                          btemp 007E                          start 000F  
               __CFG_IESO$OFF 0000               __end_of_InitApp 00B4                         ??_isr 0070  
                       ?_main 0070                 __CFG_WDTE$OFF 0000                         i1l907 009B  
         _ConfigureOscillator 00B4                         _sGPIO 0079                         _errno 0077  
                       _putch 0040                __CFG_BOREN$OFF 0000                         pclath 000A  
                       status 0003                         wtemp0 007E          ?_ConfigureOscillator 0070  
              __CFG_MCLRE$OFF 0000               __initialization 00AC                  __end_of_main 0040  
                      ??_main 0025                        ?_putch 0070                        _TRISIO 0085  
                   ??_InitApp 0074         ??_ConfigureOscillator 0074              ??_DelayTXBitUART 0074  
                      _printf 006A                        saved_w 007E                        putch@c 0020  
     __end_of__initialization 00AF                __pcstackCOMMON 0070                 putch@bitcount 0021  
               __end_of_putch 006A                       ??_putch 0075                    __pmaintext 0010  
                  __pintentry 0004                       ?_printf 0070                    __stringtab 0085  
                     _InitApp 00B1               __size_of_printf 001B                  __size_of_isr 000B  
        end_of_initialization 00AF                       printf@c 0024                       printf@f 0023  
 __end_of_ConfigureOscillator 00B5                __end_of_printf 0085           start_initialization 00AC  
                 __end_of_isr 00A6                      ??_printf 0076       __size_of_DelayTXBitUART 0006  
                 __pbssCOMMON 0077                 __pcstackBANK0 0020           __end_of__stringdata 009B  
                    ?_InitApp 0070                     __ptext180 00B1                     __ptext181 006A  
                   __ptext182 0040                     __ptext183 00A6                     __ptext184 009B  
                   __ptext185 0000                     __ptext179 00B4                     __pstrings 0085  
              __size_of_putch 002A             interrupt_function 0004                   __stringbase 008A  
                 __stringdata 008B              __size_of_InitApp 0003            __end_of__stringtab 008B  
              _DelayTXBitUART 00A6                 __size_of_main 0030  __size_of_ConfigureOscillator 0001  
      __end_of_DelayTXBitUART 00AC                      intlevel1 0000                     stringcode 0085  
                    printf@ap 0022               ?_DelayTXBitUART 0070                      stringdir 0085  
                    stringtab 0085            __CFG_FOSC$INTOSCIO 0000  
