

Microchip Technology PIC LITE Macro Assembler V1.34 build -361300703 
                                                                                               Fri May  1 00:27:08 2015

Microchip Technology Omniscient Code Generator (Lite mode) build 201502162209
     1                           	processor	16F690
     2                           	opt	pw 120
     3                           	opt	lm
     4                           	psect	idataBANK0,global,class=CODE,delta=2
     5                           	psect	cinit,global,class=CODE,merge=1,delta=2
     6                           	psect	bssBANK0,global,class=BANK0,space=1,delta=1
     7                           	psect	dataBANK0,global,class=BANK0,space=1,delta=1
     8                           	psect	cstackCOMMON,global,class=COMMON,space=1,delta=1
     9                           	psect	cstackBANK0,global,class=BANK0,space=1,delta=1
    10                           	psect	maintext,global,class=CODE,split=1,delta=2
    11                           	psect	text1,local,class=CODE,merge=1,delta=2
    12                           	psect	text2,local,class=CODE,merge=1,delta=2
    13                           	psect	text3,local,class=CODE,merge=1,delta=2
    14                           	psect	text4,local,class=CODE,merge=1,delta=2
    15                           	psect	text5,local,class=CODE,merge=1,delta=2
    16                           	psect	text6,local,class=CODE,merge=1,delta=2
    17                           	psect	text7,local,class=CODE,merge=1,delta=2
    18                           	psect	intentry,global,class=CODE,delta=2
    19                           	dabs	1,0x7E,2
    20  0000                     	;# 
    21  0001                     	;# 
    22  0002                     	;# 
    23  0003                     	;# 
    24  0004                     	;# 
    25  0005                     	;# 
    26  0006                     	;# 
    27  0007                     	;# 
    28  000A                     	;# 
    29  000B                     	;# 
    30  000C                     	;# 
    31  000D                     	;# 
    32  000E                     	;# 
    33  000E                     	;# 
    34  000F                     	;# 
    35  0010                     	;# 
    36  0011                     	;# 
    37  0012                     	;# 
    38  0013                     	;# 
    39  0014                     	;# 
    40  0015                     	;# 
    41  0015                     	;# 
    42  0016                     	;# 
    43  0017                     	;# 
    44  0018                     	;# 
    45  0019                     	;# 
    46  001A                     	;# 
    47  001C                     	;# 
    48  001D                     	;# 
    49  001E                     	;# 
    50  001F                     	;# 
    51  0081                     	;# 
    52  0085                     	;# 
    53  0086                     	;# 
    54  0087                     	;# 
    55  008C                     	;# 
    56  008D                     	;# 
    57  008E                     	;# 
    58  008F                     	;# 
    59  0090                     	;# 
    60  0092                     	;# 
    61  0093                     	;# 
    62  0093                     	;# 
    63  0093                     	;# 
    64  0094                     	;# 
    65  0095                     	;# 
    66  0095                     	;# 
    67  0096                     	;# 
    68  0096                     	;# 
    69  0097                     	;# 
    70  0098                     	;# 
    71  0099                     	;# 
    72  009A                     	;# 
    73  009B                     	;# 
    74  009E                     	;# 
    75  009F                     	;# 
    76  010C                     	;# 
    77  010C                     	;# 
    78  010D                     	;# 
    79  010E                     	;# 
    80  010F                     	;# 
    81  0115                     	;# 
    82  0116                     	;# 
    83  0118                     	;# 
    84  0119                     	;# 
    85  011A                     	;# 
    86  011B                     	;# 
    87  011E                     	;# 
    88  011F                     	;# 
    89  018C                     	;# 
    90  018D                     	;# 
    91  019D                     	;# 
    92  019E                     	;# 
    93  0000                     	;# 
    94  0001                     	;# 
    95  0002                     	;# 
    96  0003                     	;# 
    97  0004                     	;# 
    98  0005                     	;# 
    99  0006                     	;# 
   100  0007                     	;# 
   101  000A                     	;# 
   102  000B                     	;# 
   103  000C                     	;# 
   104  000D                     	;# 
   105  000E                     	;# 
   106  000E                     	;# 
   107  000F                     	;# 
   108  0010                     	;# 
   109  0011                     	;# 
   110  0012                     	;# 
   111  0013                     	;# 
   112  0014                     	;# 
   113  0015                     	;# 
   114  0015                     	;# 
   115  0016                     	;# 
   116  0017                     	;# 
   117  0018                     	;# 
   118  0019                     	;# 
   119  001A                     	;# 
   120  001C                     	;# 
   121  001D                     	;# 
   122  001E                     	;# 
   123  001F                     	;# 
   124  0081                     	;# 
   125  0085                     	;# 
   126  0086                     	;# 
   127  0087                     	;# 
   128  008C                     	;# 
   129  008D                     	;# 
   130  008E                     	;# 
   131  008F                     	;# 
   132  0090                     	;# 
   133  0092                     	;# 
   134  0093                     	;# 
   135  0093                     	;# 
   136  0093                     	;# 
   137  0094                     	;# 
   138  0095                     	;# 
   139  0095                     	;# 
   140  0096                     	;# 
   141  0096                     	;# 
   142  0097                     	;# 
   143  0098                     	;# 
   144  0099                     	;# 
   145  009A                     	;# 
   146  009B                     	;# 
   147  009E                     	;# 
   148  009F                     	;# 
   149  010C                     	;# 
   150  010C                     	;# 
   151  010D                     	;# 
   152  010E                     	;# 
   153  010F                     	;# 
   154  0115                     	;# 
   155  0116                     	;# 
   156  0118                     	;# 
   157  0119                     	;# 
   158  011A                     	;# 
   159  011B                     	;# 
   160  011E                     	;# 
   161  011F                     	;# 
   162  018C                     	;# 
   163  018D                     	;# 
   164  019D                     	;# 
   165  019E                     	;# 
   166  0000                     	;# 
   167  0001                     	;# 
   168  0002                     	;# 
   169  0003                     	;# 
   170  0004                     	;# 
   171  0005                     	;# 
   172  0006                     	;# 
   173  0007                     	;# 
   174  000A                     	;# 
   175  000B                     	;# 
   176  000C                     	;# 
   177  000D                     	;# 
   178  000E                     	;# 
   179  000E                     	;# 
   180  000F                     	;# 
   181  0010                     	;# 
   182  0011                     	;# 
   183  0012                     	;# 
   184  0013                     	;# 
   185  0014                     	;# 
   186  0015                     	;# 
   187  0015                     	;# 
   188  0016                     	;# 
   189  0017                     	;# 
   190  0018                     	;# 
   191  0019                     	;# 
   192  001A                     	;# 
   193  001C                     	;# 
   194  001D                     	;# 
   195  001E                     	;# 
   196  001F                     	;# 
   197  0081                     	;# 
   198  0085                     	;# 
   199  0086                     	;# 
   200  0087                     	;# 
   201  008C                     	;# 
   202  008D                     	;# 
   203  008E                     	;# 
   204  008F                     	;# 
   205  0090                     	;# 
   206  0092                     	;# 
   207  0093                     	;# 
   208  0093                     	;# 
   209  0093                     	;# 
   210  0094                     	;# 
   211  0095                     	;# 
   212  0095                     	;# 
   213  0096                     	;# 
   214  0096                     	;# 
   215  0097                     	;# 
   216  0098                     	;# 
   217  0099                     	;# 
   218  009A                     	;# 
   219  009B                     	;# 
   220  009E                     	;# 
   221  009F                     	;# 
   222  010C                     	;# 
   223  010C                     	;# 
   224  010D                     	;# 
   225  010E                     	;# 
   226  010F                     	;# 
   227  0115                     	;# 
   228  0116                     	;# 
   229  0118                     	;# 
   230  0119                     	;# 
   231  011A                     	;# 
   232  011B                     	;# 
   233  011E                     	;# 
   234  011F                     	;# 
   235  018C                     	;# 
   236  018D                     	;# 
   237  019D                     	;# 
   238  019E                     	;# 
   239  0000                     	;# 
   240  0001                     	;# 
   241  0002                     	;# 
   242  0003                     	;# 
   243  0004                     	;# 
   244  0005                     	;# 
   245  0006                     	;# 
   246  0007                     	;# 
   247  000A                     	;# 
   248  000B                     	;# 
   249  000C                     	;# 
   250  000D                     	;# 
   251  000E                     	;# 
   252  000E                     	;# 
   253  000F                     	;# 
   254  0010                     	;# 
   255  0011                     	;# 
   256  0012                     	;# 
   257  0013                     	;# 
   258  0014                     	;# 
   259  0015                     	;# 
   260  0015                     	;# 
   261  0016                     	;# 
   262  0017                     	;# 
   263  0018                     	;# 
   264  0019                     	;# 
   265  001A                     	;# 
   266  001C                     	;# 
   267  001D                     	;# 
   268  001E                     	;# 
   269  001F                     	;# 
   270  0081                     	;# 
   271  0085                     	;# 
   272  0086                     	;# 
   273  0087                     	;# 
   274  008C                     	;# 
   275  008D                     	;# 
   276  008E                     	;# 
   277  008F                     	;# 
   278  0090                     	;# 
   279  0092                     	;# 
   280  0093                     	;# 
   281  0093                     	;# 
   282  0093                     	;# 
   283  0094                     	;# 
   284  0095                     	;# 
   285  0095                     	;# 
   286  0096                     	;# 
   287  0096                     	;# 
   288  0097                     	;# 
   289  0098                     	;# 
   290  0099                     	;# 
   291  009A                     	;# 
   292  009B                     	;# 
   293  009E                     	;# 
   294  009F                     	;# 
   295  010C                     	;# 
   296  010C                     	;# 
   297  010D                     	;# 
   298  010E                     	;# 
   299  010F                     	;# 
   300  0115                     	;# 
   301  0116                     	;# 
   302  0118                     	;# 
   303  0119                     	;# 
   304  011A                     	;# 
   305  011B                     	;# 
   306  011E                     	;# 
   307  011F                     	;# 
   308  018C                     	;# 
   309  018D                     	;# 
   310  019D                     	;# 
   311  019E                     	;# 
   312  0000                     	;# 
   313  0001                     	;# 
   314  0002                     	;# 
   315  0003                     	;# 
   316  0004                     	;# 
   317  0005                     	;# 
   318  0006                     	;# 
   319  0007                     	;# 
   320  000A                     	;# 
   321  000B                     	;# 
   322  000C                     	;# 
   323  000D                     	;# 
   324  000E                     	;# 
   325  000E                     	;# 
   326  000F                     	;# 
   327  0010                     	;# 
   328  0011                     	;# 
   329  0012                     	;# 
   330  0013                     	;# 
   331  0014                     	;# 
   332  0015                     	;# 
   333  0015                     	;# 
   334  0016                     	;# 
   335  0017                     	;# 
   336  0018                     	;# 
   337  0019                     	;# 
   338  001A                     	;# 
   339  001C                     	;# 
   340  001D                     	;# 
   341  001E                     	;# 
   342  001F                     	;# 
   343  0081                     	;# 
   344  0085                     	;# 
   345  0086                     	;# 
   346  0087                     	;# 
   347  008C                     	;# 
   348  008D                     	;# 
   349  008E                     	;# 
   350  008F                     	;# 
   351  0090                     	;# 
   352  0092                     	;# 
   353  0093                     	;# 
   354  0093                     	;# 
   355  0093                     	;# 
   356  0094                     	;# 
   357  0095                     	;# 
   358  0095                     	;# 
   359  0096                     	;# 
   360  0096                     	;# 
   361  0097                     	;# 
   362  0098                     	;# 
   363  0099                     	;# 
   364  009A                     	;# 
   365  009B                     	;# 
   366  009E                     	;# 
   367  009F                     	;# 
   368  010C                     	;# 
   369  010C                     	;# 
   370  010D                     	;# 
   371  010E                     	;# 
   372  010F                     	;# 
   373  0115                     	;# 
   374  0116                     	;# 
   375  0118                     	;# 
   376  0119                     	;# 
   377  011A                     	;# 
   378  011B                     	;# 
   379  011E                     	;# 
   380  011F                     	;# 
   381  018C                     	;# 
   382  018D                     	;# 
   383  019D                     	;# 
   384  019E                     	;# 
   385                           
   386                           	psect	idataBANK0
   387  0270                     __pidataBANK0:	
   388                           
   389                           ;initializer for _key_count
   390  0270  3417               	retlw	23
   391  0271  3400               	retlw	0
   392  0005                     _PORTAbits	set	5
   393  0006                     _PORTBbits	set	6
   394  0007                     _PORTCbits	set	7
   395  0013                     _SSPBUF	set	19
   396  0014                     _SSPCONbits	set	20
   397  0019                     _TXREG	set	25
   398  00C4                     _CREN	set	196
   399  00C7                     _SPEN	set	199
   400  0064                     _TXIF	set	100
   401  009B                     _BAUDCTLbits	set	155
   402  008F                     _OSCCON	set	143
   403  0099                     _SPBRG	set	153
   404  0094                     _SSPSTATbits	set	148
   405  0085                     _TRISA	set	133
   406  0085                     _TRISAbits	set	133
   407  0086                     _TRISB	set	134
   408  0086                     _TRISBbits	set	134
   409  0087                     _TRISC	set	135
   410  0087                     _TRISCbits	set	135
   411  0095                     _WPUAbits	set	149
   412  04C2                     _BRGH	set	1218
   413  04C4                     _SYNC	set	1220
   414  04C5                     _TXEN	set	1221
   415  040F                     _nRABPU	set	1039
   416  011E                     _ANSEL	set	286
   417  011F                     _ANSELH	set	287
   418                           
   419                           ; #config settings
   420  0000                     
   421                           	psect	cinit
   422  0013                     start_initialization:	
   423  0013                     __initialization:	
   424                           
   425                           ; Clear objects allocated to BANK0
   426  0013  01C2               	clrf	__pbssBANK0& (0+127)
   427  0014  01C3               	clrf	(__pbssBANK0+1)& (0+127)
   428  0015  01C4               	clrf	(__pbssBANK0+2)& (0+127)
   429  0016  01C5               	clrf	(__pbssBANK0+3)& (0+127)
   430                           
   431                           ; Initialize objects allocated to BANK0
   432  0017  118A  2270  118A   	fcall	__pidataBANK0	;fetch initializer
   433  001A  00C6               	movwf	__pdataBANK0& (0+127)
   434  001B  118A  2271         	fcall	__pidataBANK0+1	;fetch initializer
   435  001D  00C7               	movwf	(__pdataBANK0+1)& (0+127)
   436  001E                     end_of_initialization:	
   437                           ;End of C runtime variable initialization code
   438                           
   439  001E                     __end_of__initialization:	
   440  001E  0183               	clrf	3
   441  001F  118A  2821         	ljmp	_main	;jump to C main() function
   442                           
   443                           	psect	bssBANK0
   444  0042                     __pbssBANK0:	
   445  0042                     _last_key:	
   446  0042                     	ds	2
   447  0044                     _pressed_keys:	
   448  0044                     	ds	2
   449                           
   450                           	psect	dataBANK0
   451  0046                     __pdataBANK0:	
   452  0046                     _key_count:	
   453  0046                     	ds	2
   454                           
   455                           	psect	cstackCOMMON
   456  0070                     __pcstackCOMMON:	
   457  0070                     ?_ConfigureOscillator:	
   458  0070                     ?_InitApp:	
   459                           ; 0 bytes @ 0x0
   460                           
   461  0070                     ?_isr:	
   462                           ; 0 bytes @ 0x0
   463                           
   464  0070                     ??_isr:	
   465                           ; 0 bytes @ 0x0
   466                           
   467  0070                     ?_main:	
   468                           ; 0 bytes @ 0x0
   469                           
   470                           
   471                           ; 0 bytes @ 0x0
   472  0070                     	ds	4
   473  0074                     ??_ConfigureOscillator:	
   474  0074                     ??_InitApp:	
   475                           ; 0 bytes @ 0x4
   476                           
   477  0074                     ?_SPI_Write:	
   478                           ; 0 bytes @ 0x4
   479                           
   480  0074                     ??___lmul:	
   481                           ; 0 bytes @ 0x4
   482                           
   483  0074                     SPI_Write@data:	
   484                           ; 0 bytes @ 0x4
   485                           
   486                           
   487                           ; 2 bytes @ 0x4
   488  0074                     	ds	1
   489  0075                     ___lmul@product:	
   490                           
   491                           ; 4 bytes @ 0x5
   492  0075                     	ds	1
   493  0076                     ??_SPI_Write:	
   494                           
   495                           ; 0 bytes @ 0x6
   496  0076                     	ds	2
   497  0078                     SPI_Write@config:	
   498                           
   499                           ; 2 bytes @ 0x8
   500  0078                     	ds	1
   501  0079                     ??___lldiv:	
   502                           
   503                           ; 0 bytes @ 0x9
   504  0079                     	ds	1
   505  007A                     ??_get_voltage:	
   506                           
   507                           	psect	cstackBANK0
   508  0020                     __pcstackBANK0:	
   509                           ; 0 bytes @ 0xA
   510                           
   511  0020                     ?___lmul:	
   512  0020                     ___lmul@multiplier:	
   513                           ; 4 bytes @ 0x0
   514                           
   515                           
   516                           ; 4 bytes @ 0x0
   517  0020                     	ds	4
   518  0024                     ___lmul@multiplicand:	
   519                           
   520                           ; 4 bytes @ 0x4
   521  0024                     	ds	4
   522  0028                     ?___lldiv:	
   523  0028                     ___lldiv@divisor:	
   524                           ; 4 bytes @ 0x8
   525                           
   526                           
   527                           ; 4 bytes @ 0x8
   528  0028                     	ds	4
   529  002C                     ___lldiv@dividend:	
   530                           
   531                           ; 4 bytes @ 0xC
   532  002C                     	ds	4
   533  0030                     ___lldiv@quotient:	
   534                           
   535                           ; 4 bytes @ 0x10
   536  0030                     	ds	4
   537  0034                     ___lldiv@counter:	
   538                           
   539                           ; 1 bytes @ 0x14
   540  0034                     	ds	1
   541  0035                     ?_get_voltage:	
   542  0035                     get_voltage@keyCode:	
   543                           ; 4 bytes @ 0x15
   544                           
   545                           
   546                           ; 4 bytes @ 0x15
   547  0035                     	ds	4
   548  0039                     ??_main:	
   549                           
   550                           ; 0 bytes @ 0x19
   551  0039                     	ds	3
   552  003C                     main@real_key:	
   553                           
   554                           ; 2 bytes @ 0x1C
   555  003C                     	ds	2
   556  003E                     main@real_value:	
   557                           
   558                           ; 2 bytes @ 0x1E
   559  003E                     	ds	2
   560  0040                     main@current_key:	
   561                           
   562                           ; 2 bytes @ 0x20
   563  0040                     	ds	2
   564                           
   565                           	psect	maintext
   566  0021                     __pmaintext:	
   567 ;;
   568 ;;Main: autosize = 0, tempsize = 3, incstack = 0, save=0
   569 ;;
   570 ;; *************** function _main *****************
   571 ;; Defined at:
   572 ;;		line 113 in file "main.c"
   573 ;; Parameters:    Size  Location     Type
   574 ;;		None
   575 ;; Auto vars:     Size  Location     Type
   576 ;;  real_value      2   30[BANK0 ] unsigned int 
   577 ;;  real_key        2   28[BANK0 ] unsigned int 
   578 ;;  current_key     2   32[BANK0 ] unsigned int 
   579 ;; Return value:  Size  Location     Type
   580 ;;		None               void
   581 ;; Registers used:
   582 ;;		wreg, status,2, status,0, pclath, cstack
   583 ;; Tracked objects:
   584 ;;		On entry : B00/0
   585 ;;		On exit  : 0/0
   586 ;;		Unchanged: 0/0
   587 ;; Data sizes:     COMMON   BANK0   BANK1   BANK2
   588 ;;      Params:         0       0       0       0
   589 ;;      Locals:         0       6       0       0
   590 ;;      Temps:          0       3       0       0
   591 ;;      Totals:         0       9       0       0
   592 ;;Total ram usage:        9 bytes
   593 ;; Hardware stack levels required when called:    3
   594 ;; This function calls:
   595 ;;		_ConfigureOscillator
   596 ;;		_InitApp
   597 ;;		_SPI_Write
   598 ;;		_get_voltage
   599 ;; This function is called by:
   600 ;;		Startup code after reset
   601 ;; This function uses a non-reentrant model
   602 ;;
   603                           
   604                           
   605                           ;psect for function _main
   606  0021                     _main:	
   607                           
   608                           ;main.c: 116: ConfigureOscillator();
   609                           
   610                           ;incstack = 0
   611                           ; Regs used in _main: [wreg+status,2+status,0+pclath+cstack]
   612  0021  118A  226B  118A   	fcall	_ConfigureOscillator
   613                           
   614                           ;main.c: 119: InitApp();
   615  0024  118A  21C0  118A   	fcall	_InitApp
   616                           
   617                           ;main.c: 121: _delay((unsigned long)((1000)*(8000000L/4000.0)));
   618  0027  300B               	movlw	11
   619  0028  1283               	bcf	3,5	;RP0=0, select bank0
   620  0029  1303               	bcf	3,6	;RP1=0, select bank0
   621  002A  00BB               	movwf	??_main+2
   622  002B  3026               	movlw	38
   623  002C  00BA               	movwf	??_main+1
   624  002D  3066               	movlw	102
   625  002E  00B9               	movwf	??_main
   626  002F                     u437:	
   627  002F  0BB9               	decfsz	??_main,f
   628  0030  282F               	goto	u437
   629  0031  0BBA               	decfsz	??_main+1,f
   630  0032  282F               	goto	u437
   631  0033  0BBB               	decfsz	??_main+2,f
   632  0034  282F               	goto	u437
   633  0035  2836               	nop2
   634  0036                     l914:	
   635                           ;main.c: 122: while(1)
   636                           
   637                           
   638                           ;main.c: 123: {
   639                           ;main.c: 163: pressed_keys = 0;
   640  0036  1283               	bcf	3,5	;RP0=0, select bank0
   641  0037  1303               	bcf	3,6	;RP1=0, select bank0
   642  0038  01C4               	clrf	_pressed_keys
   643  0039  01C5               	clrf	_pressed_keys+1
   644                           
   645                           ;main.c: 164: last_key = 100;
   646  003A  3064               	movlw	100
   647  003B  00C2               	movwf	_last_key
   648  003C  3000               	movlw	0
   649  003D  00C3               	movwf	_last_key+1
   650                           
   651                           ;main.c: 165: for (uint16_t current_key = 0; current_key < key_count; current_key += 1) 
      +                          {
   652  003E  01C0               	clrf	main@current_key
   653  003F  01C1               	clrf	main@current_key+1
   654  0040                     l63:	
   655  0040  0847               	movf	_key_count+1,w
   656  0041  0241               	subwf	main@current_key+1,w
   657  0042  1D03               	skipz
   658  0043  2846               	goto	u415
   659  0044  0846               	movf	_key_count,w
   660  0045  0240               	subwf	main@current_key,w
   661  0046                     u415:	
   662  0046  1803               	btfsc	3,0
   663  0047  28EC               	goto	l938
   664                           
   665                           ;main.c: 166: if (current_key <= 15) {
   666  0048  3000               	movlw	0
   667  0049  0241               	subwf	main@current_key+1,w
   668  004A  3010               	movlw	16
   669  004B  1903               	skipnz
   670  004C  0240               	subwf	main@current_key,w
   671  004D  1803               	skipnc
   672  004E  28A0               	goto	l930
   673                           
   674                           ;main.c: 167: PORTAbits.RA2 = (current_key >> 0) & 1;
   675  004F  0840               	movf	main@current_key,w
   676  0050  3901               	andlw	1
   677  0051  00B9               	movwf	??_main
   678  0052  0DB9               	rlf	??_main,f
   679  0053  0DB9               	rlf	??_main,f
   680  0054  0805               	movf	5,w	;volatile
   681  0055  0639               	xorwf	??_main,w
   682  0056  39FB               	andlw	-5
   683  0057  0639               	xorwf	??_main,w
   684  0058  0085               	movwf	5	;volatile
   685                           
   686                           ;main.c: 168: PORTCbits.RC0 = (current_key >> 1) & 1;
   687  0059  0841               	movf	main@current_key+1,w
   688  005A  00BA               	movwf	??_main+1
   689  005B  0840               	movf	main@current_key,w
   690  005C  00B9               	movwf	??_main
   691  005D  1003               	clrc
   692  005E  0CBA               	rrf	??_main+1,f
   693  005F  0CB9               	rrf	??_main,f
   694  0060  3001               	movlw	1
   695  0061  0539               	andwf	??_main,w
   696  0062  00BB               	movwf	??_main+2
   697  0063  0807               	movf	7,w	;volatile
   698  0064  063B               	xorwf	??_main+2,w
   699  0065  39FE               	andlw	-2
   700  0066  063B               	xorwf	??_main+2,w
   701  0067  0087               	movwf	7	;volatile
   702                           
   703                           ;main.c: 169: PORTCbits.RC1 = (current_key >> 2) & 1;
   704  0068  0841               	movf	main@current_key+1,w
   705  0069  00BA               	movwf	??_main+1
   706  006A  0840               	movf	main@current_key,w
   707  006B  00B9               	movwf	??_main
   708  006C  1003               	clrc
   709  006D  0CBA               	rrf	??_main+1,f
   710  006E  0CB9               	rrf	??_main,f
   711  006F  1003               	clrc
   712  0070  0CBA               	rrf	??_main+1,f
   713  0071  0CB9               	rrf	??_main,f
   714  0072  0839               	movf	??_main,w
   715  0073  3901               	andlw	1
   716  0074  00BB               	movwf	??_main+2
   717  0075  0DBB               	rlf	??_main+2,f
   718  0076  0807               	movf	7,w	;volatile
   719  0077  063B               	xorwf	??_main+2,w
   720  0078  39FD               	andlw	-3
   721  0079  063B               	xorwf	??_main+2,w
   722  007A  0087               	movwf	7	;volatile
   723                           
   724                           ;main.c: 170: PORTCbits.RC2 = (current_key >> 3) & 1;
   725  007B  0841               	movf	main@current_key+1,w
   726  007C  00BA               	movwf	??_main+1
   727  007D  0840               	movf	main@current_key,w
   728  007E  00B9               	movwf	??_main
   729  007F  1003               	clrc
   730  0080  0CBA               	rrf	??_main+1,f
   731  0081  0CB9               	rrf	??_main,f
   732  0082  1003               	clrc
   733  0083  0CBA               	rrf	??_main+1,f
   734  0084  0CB9               	rrf	??_main,f
   735  0085  1003               	clrc
   736  0086  0CBA               	rrf	??_main+1,f
   737  0087  0CB9               	rrf	??_main,f
   738  0088  0839               	movf	??_main,w
   739  0089  3901               	andlw	1
   740  008A  00BB               	movwf	??_main+2
   741  008B  0DBB               	rlf	??_main+2,f
   742  008C  0DBB               	rlf	??_main+2,f
   743  008D  0807               	movf	7,w	;volatile
   744  008E  063B               	xorwf	??_main+2,w
   745  008F  39FB               	andlw	-5
   746  0090  063B               	xorwf	??_main+2,w
   747  0091  0087               	movwf	7	;volatile
   748                           
   749                           ;main.c: 172: _delay((unsigned long)((1)*(8000000L/4000.0)));
   750  0092  3003               	movlw	3
   751  0093  00BA               	movwf	??_main+1
   752  0094  3097               	movlw	151
   753  0095  00B9               	movwf	??_main
   754  0096                     u447:	
   755  0096  0BB9               	decfsz	??_main,f
   756  0097  2896               	goto	u447
   757  0098  0BBA               	decfsz	??_main+1,f
   758  0099  2896               	goto	u447
   759  009A  289B               	nop2
   760                           
   761                           ;main.c: 174: if (PORTAbits.RA4 == 0) {
   762  009B  1283               	bcf	3,5	;RP0=0, select bank0
   763  009C  1303               	bcf	3,6	;RP1=0, select bank0
   764  009D  1A05               	btfsc	5,4	;volatile
   765  009E  28E5               	goto	l67
   766  009F  28DB               	goto	l936
   767  00A0                     l930:	
   768                           ;main.c: 177: }
   769                           ;main.c: 178: } else {
   770                           
   771                           ;main.c: 176: last_key = current_key;
   772                           
   773                           ;main.c: 175: pressed_keys += 1;
   774                           
   775                           
   776                           ;main.c: 179: PORTBbits.RB4 = (current_key >> 0) & 1;
   777  00A0  0840               	movf	main@current_key,w
   778  00A1  3901               	andlw	1
   779  00A2  00B9               	movwf	??_main
   780  00A3  0EB9               	swapf	??_main,f
   781  00A4  0806               	movf	6,w	;volatile
   782  00A5  0639               	xorwf	??_main,w
   783  00A6  39EF               	andlw	-17
   784  00A7  0639               	xorwf	??_main,w
   785  00A8  0086               	movwf	6	;volatile
   786                           
   787                           ;main.c: 180: PORTCbits.RC3 = (current_key >> 1) & 1;
   788  00A9  0841               	movf	main@current_key+1,w
   789  00AA  00BA               	movwf	??_main+1
   790  00AB  0840               	movf	main@current_key,w
   791  00AC  00B9               	movwf	??_main
   792  00AD  1003               	clrc
   793  00AE  0CBA               	rrf	??_main+1,f
   794  00AF  0CB9               	rrf	??_main,f
   795  00B0  0839               	movf	??_main,w
   796  00B1  3901               	andlw	1
   797  00B2  00BB               	movwf	??_main+2
   798  00B3  0DBB               	rlf	??_main+2,f
   799  00B4  0DBB               	rlf	??_main+2,f
   800  00B5  0DBB               	rlf	??_main+2,f
   801  00B6  0807               	movf	7,w	;volatile
   802  00B7  063B               	xorwf	??_main+2,w
   803  00B8  39F7               	andlw	-9
   804  00B9  063B               	xorwf	??_main+2,w
   805  00BA  0087               	movwf	7	;volatile
   806                           
   807                           ;main.c: 181: PORTCbits.RC4 = (current_key >> 2) & 1;
   808  00BB  0841               	movf	main@current_key+1,w
   809  00BC  00BA               	movwf	??_main+1
   810  00BD  0840               	movf	main@current_key,w
   811  00BE  00B9               	movwf	??_main
   812  00BF  1003               	clrc
   813  00C0  0CBA               	rrf	??_main+1,f
   814  00C1  0CB9               	rrf	??_main,f
   815  00C2  1003               	clrc
   816  00C3  0CBA               	rrf	??_main+1,f
   817  00C4  0CB9               	rrf	??_main,f
   818  00C5  0839               	movf	??_main,w
   819  00C6  3901               	andlw	1
   820  00C7  00BB               	movwf	??_main+2
   821  00C8  0EBB               	swapf	??_main+2,f
   822  00C9  0807               	movf	7,w	;volatile
   823  00CA  063B               	xorwf	??_main+2,w
   824  00CB  39EF               	andlw	-17
   825  00CC  063B               	xorwf	??_main+2,w
   826  00CD  0087               	movwf	7	;volatile
   827                           
   828                           ;main.c: 183: _delay((unsigned long)((1)*(8000000L/4000.0)));
   829  00CE  3003               	movlw	3
   830  00CF  00BA               	movwf	??_main+1
   831  00D0  3097               	movlw	151
   832  00D1  00B9               	movwf	??_main
   833  00D2                     u457:	
   834  00D2  0BB9               	decfsz	??_main,f
   835  00D3  28D2               	goto	u457
   836  00D4  0BBA               	decfsz	??_main+1,f
   837  00D5  28D2               	goto	u457
   838  00D6  28D7               	nop2
   839                           
   840                           ;main.c: 185: if (PORTAbits.RA5 == 0) {
   841  00D7  1283               	bcf	3,5	;RP0=0, select bank0
   842  00D8  1303               	bcf	3,6	;RP1=0, select bank0
   843  00D9  1A85               	btfsc	5,5	;volatile
   844  00DA  28E5               	goto	l67
   845  00DB                     l936:	
   846                           
   847                           ;main.c: 186: pressed_keys += 1;
   848  00DB  3001               	movlw	1
   849  00DC  07C4               	addwf	_pressed_keys,f
   850  00DD  1803               	skipnc
   851  00DE  0AC5               	incf	_pressed_keys+1,f
   852  00DF  3000               	movlw	0
   853  00E0  07C5               	addwf	_pressed_keys+1,f
   854                           
   855                           ;main.c: 187: last_key = current_key;
   856  00E1  0841               	movf	main@current_key+1,w
   857  00E2  00C3               	movwf	_last_key+1
   858  00E3  0840               	movf	main@current_key,w
   859  00E4  00C2               	movwf	_last_key
   860  00E5                     l67:	
   861  00E5  3001               	movlw	1
   862  00E6  07C0               	addwf	main@current_key,f
   863  00E7  1803               	skipnc
   864  00E8  0AC1               	incf	main@current_key+1,f
   865  00E9  3000               	movlw	0
   866  00EA  07C1               	addwf	main@current_key+1,f
   867  00EB  2840               	goto	l63
   868  00EC                     l938:	
   869                           
   870                           ;main.c: 188: }
   871                           ;main.c: 189: }
   872                           ;main.c: 191: }
   873                           ;main.c: 193: if (pressed_keys > 0) {
   874  00EC  0844               	movf	_pressed_keys,w
   875  00ED  0445               	iorwf	_pressed_keys+1,w
   876  00EE  1903               	btfsc	3,2
   877  00EF  291D               	goto	l70
   878                           
   879                           ;main.c: 194: PORTCbits.RC5 = 1;
   880  00F0  1687               	bsf	7,5	;volatile
   881                           
   882                           ;main.c: 196: uint16_t real_key = (key_count - last_key - 1);
   883  00F1  0842               	movf	_last_key,w
   884  00F2  3E01               	addlw	1
   885  00F3  00B9               	movwf	??_main
   886  00F4  0843               	movf	_last_key+1,w
   887  00F5  1803               	skipnc
   888  00F6  3E01               	addlw	1
   889  00F7  3E00               	addlw	0
   890  00F8  00BA               	movwf	??_main+1
   891  00F9  09B9               	comf	??_main,f
   892  00FA  09BA               	comf	??_main+1,f
   893  00FB  0AB9               	incf	??_main,f
   894  00FC  1903               	skipnz
   895  00FD  0ABA               	incf	??_main+1,f
   896  00FE  0846               	movf	_key_count,w
   897  00FF  0739               	addwf	??_main,w
   898  0100  00BC               	movwf	main@real_key
   899  0101  0847               	movf	_key_count+1,w
   900  0102  1803               	skipnc
   901  0103  0A47               	incf	_key_count+1,w
   902  0104  073A               	addwf	??_main+1,w
   903  0105  00BD               	movwf	main@real_key+1
   904                           
   905                           ;main.c: 198: uint16_t real_value = get_voltage(real_key);
   906  0106  083C               	movf	main@real_key,w
   907  0107  00B5               	movwf	get_voltage@keyCode
   908  0108  083D               	movf	main@real_key+1,w
   909  0109  00B6               	movwf	get_voltage@keyCode+1
   910  010A  01B7               	clrf	get_voltage@keyCode+2
   911  010B  01B8               	clrf	get_voltage@keyCode+3
   912  010C  118A  21FE  118A   	fcall	_get_voltage
   913  010F  1283               	bcf	3,5	;RP0=0, select bank0
   914  0110  1303               	bcf	3,6	;RP1=0, select bank0
   915  0111  0836               	movf	?_get_voltage+1,w
   916  0112  00BF               	movwf	main@real_value+1
   917  0113  0835               	movf	?_get_voltage,w
   918  0114  00BE               	movwf	main@real_value
   919                           
   920                           ;main.c: 200: SPI_Write(real_value);
   921  0115  083F               	movf	main@real_value+1,w
   922  0116  00F5               	movwf	SPI_Write@data+1
   923  0117  083E               	movf	main@real_value,w
   924  0118  00F4               	movwf	SPI_Write@data
   925  0119  118A  2234  118A   	fcall	_SPI_Write
   926                           
   927                           ;main.c: 201: } else {
   928  011C  2836               	goto	l914
   929  011D                     l70:	
   930                           
   931                           ;main.c: 202: PORTCbits.RC5 = 0;
   932  011D  1287               	bcf	7,5	;volatile
   933  011E  2836               	goto	l914
   934  011F                     __end_of_main:	
   935                           
   936                           	psect	text1
   937  01FE                     __ptext1:	
   938 ;; *************** function _get_voltage *****************
   939 ;; Defined at:
   940 ;;		line 84 in file "main.c"
   941 ;; Parameters:    Size  Location     Type
   942 ;;  keyCode         4   21[BANK0 ] unsigned long 
   943 ;; Auto vars:     Size  Location     Type
   944 ;;		None
   945 ;; Return value:  Size  Location     Type
   946 ;;                  4   21[BANK0 ] unsigned long 
   947 ;; Registers used:
   948 ;;		wreg, status,2, status,0, pclath, cstack
   949 ;; Tracked objects:
   950 ;;		On entry : 0/0
   951 ;;		On exit  : 0/0
   952 ;;		Unchanged: 0/0
   953 ;; Data sizes:     COMMON   BANK0   BANK1   BANK2
   954 ;;      Params:         0       4       0       0
   955 ;;      Locals:         0       0       0       0
   956 ;;      Temps:          0       0       0       0
   957 ;;      Totals:         0       4       0       0
   958 ;;Total ram usage:        4 bytes
   959 ;; Hardware stack levels used:    1
   960 ;; Hardware stack levels required when called:    2
   961 ;; This function calls:
   962 ;;		___lldiv
   963 ;;		___lmul
   964 ;; This function is called by:
   965 ;;		_main
   966 ;; This function uses a non-reentrant model
   967 ;;
   968                           
   969                           
   970                           ;psect for function _get_voltage
   971  01FE                     _get_voltage:	
   972                           
   973                           ;main.c: 96: return (keyCode * 1502) / (key_count-1);
   974                           
   975                           ;incstack = 0
   976                           ; Regs used in _get_voltage: [wreg+status,2+status,0+pclath+cstack]
   977  01FE  1283               	bcf	3,5	;RP0=0, select bank0
   978  01FF  1303               	bcf	3,6	;RP1=0, select bank0
   979  0200  0846               	movf	_key_count,w
   980  0201  3EFF               	addlw	255
   981  0202  00A8               	movwf	___lldiv@divisor
   982  0203  0847               	movf	_key_count+1,w
   983  0204  1803               	skipnc
   984  0205  3E01               	addlw	1
   985  0206  3EFF               	addlw	255
   986  0207  00A9               	movwf	___lldiv@divisor+1
   987  0208  01AA               	clrf	___lldiv@divisor+2
   988  0209  01AB               	clrf	___lldiv@divisor+3
   989  020A  0838               	movf	get_voltage@keyCode+3,w
   990  020B  00A3               	movwf	___lmul@multiplier+3
   991  020C  0837               	movf	get_voltage@keyCode+2,w
   992  020D  00A2               	movwf	___lmul@multiplier+2
   993  020E  0836               	movf	get_voltage@keyCode+1,w
   994  020F  00A1               	movwf	___lmul@multiplier+1
   995  0210  0835               	movf	get_voltage@keyCode,w
   996  0211  00A0               	movwf	___lmul@multiplier
   997  0212  3000               	movlw	0
   998  0213  00A7               	movwf	___lmul@multiplicand+3
   999  0214  3000               	movlw	0
  1000  0215  00A6               	movwf	___lmul@multiplicand+2
  1001  0216  3005               	movlw	5
  1002  0217  00A5               	movwf	___lmul@multiplicand+1
  1003  0218  30DE               	movlw	222
  1004  0219  00A4               	movwf	___lmul@multiplicand
  1005  021A  118A  217F  118A   	fcall	___lmul
  1006  021D  1283               	bcf	3,5	;RP0=0, select bank0
  1007  021E  1303               	bcf	3,6	;RP1=0, select bank0
  1008  021F  0823               	movf	?___lmul+3,w
  1009  0220  00AF               	movwf	___lldiv@dividend+3
  1010  0221  0822               	movf	?___lmul+2,w
  1011  0222  00AE               	movwf	___lldiv@dividend+2
  1012  0223  0821               	movf	?___lmul+1,w
  1013  0224  00AD               	movwf	___lldiv@dividend+1
  1014  0225  0820               	movf	?___lmul,w
  1015  0226  00AC               	movwf	___lldiv@dividend
  1016  0227  118A  211F         	fcall	___lldiv
  1017  0229  1283               	bcf	3,5	;RP0=0, select bank0
  1018  022A  1303               	bcf	3,6	;RP1=0, select bank0
  1019  022B  082B               	movf	?___lldiv+3,w
  1020  022C  00B8               	movwf	?_get_voltage+3
  1021  022D  082A               	movf	?___lldiv+2,w
  1022  022E  00B7               	movwf	?_get_voltage+2
  1023  022F  0829               	movf	?___lldiv+1,w
  1024  0230  00B6               	movwf	?_get_voltage+1
  1025  0231  0828               	movf	?___lldiv,w
  1026  0232  00B5               	movwf	?_get_voltage
  1027  0233  0008               	return
  1028  0234                     __end_of_get_voltage:	
  1029                           
  1030                           	psect	text2
  1031  017F                     __ptext2:	
  1032 ;; *************** function ___lmul *****************
  1033 ;; Defined at:
  1034 ;;		line 15 in file "/Applications/microchip/xc8/v1.34/sources/common/Umul32.c"
  1035 ;; Parameters:    Size  Location     Type
  1036 ;;  multiplier      4    0[BANK0 ] unsigned long 
  1037 ;;  multiplicand    4    4[BANK0 ] unsigned long 
  1038 ;; Auto vars:     Size  Location     Type
  1039 ;;  product         4    5[COMMON] unsigned long 
  1040 ;; Return value:  Size  Location     Type
  1041 ;;                  4    0[BANK0 ] unsigned long 
  1042 ;; Registers used:
  1043 ;;		wreg, status,2, status,0
  1044 ;; Tracked objects:
  1045 ;;		On entry : 0/0
  1046 ;;		On exit  : 0/0
  1047 ;;		Unchanged: 0/0
  1048 ;; Data sizes:     COMMON   BANK0   BANK1   BANK2
  1049 ;;      Params:         0       8       0       0
  1050 ;;      Locals:         4       0       0       0
  1051 ;;      Temps:          1       0       0       0
  1052 ;;      Totals:         5       8       0       0
  1053 ;;Total ram usage:       13 bytes
  1054 ;; Hardware stack levels used:    1
  1055 ;; Hardware stack levels required when called:    1
  1056 ;; This function calls:
  1057 ;;		Nothing
  1058 ;; This function is called by:
  1059 ;;		_get_voltage
  1060 ;; This function uses a non-reentrant model
  1061 ;;
  1062                           
  1063                           
  1064                           ;psect for function ___lmul
  1065  017F                     ___lmul:	
  1066                           
  1067                           ;incstack = 0
  1068                           ; Regs used in ___lmul: [wreg+status,2+status,0]
  1069  017F  3000               	movlw	0
  1070  0180  00F8               	movwf	___lmul@product+3
  1071  0181  3000               	movlw	0
  1072  0182  00F7               	movwf	___lmul@product+2
  1073  0183  3000               	movlw	0
  1074  0184  00F6               	movwf	___lmul@product+1
  1075  0185  3000               	movlw	0
  1076  0186  00F5               	movwf	___lmul@product
  1077  0187                     l778:	
  1078  0187  1283               	bcf	3,5	;RP0=0, select bank0
  1079  0188  1303               	bcf	3,6	;RP1=0, select bank0
  1080  0189  1C20               	btfss	___lmul@multiplier,0
  1081  018A  299F               	goto	l782
  1082  018B  0824               	movf	___lmul@multiplicand,w
  1083  018C  07F5               	addwf	___lmul@product,f
  1084  018D  0825               	movf	___lmul@multiplicand+1,w
  1085  018E  1103               	clrz
  1086  018F  1803               	skipnc
  1087  0190  3E01               	addlw	1
  1088  0191  1D03               	btfss	3,2
  1089  0192  07F6               	addwf	___lmul@product+1,f
  1090  0193  0826               	movf	___lmul@multiplicand+2,w
  1091  0194  1103               	clrz
  1092  0195  1803               	skipnc
  1093  0196  3E01               	addlw	1
  1094  0197  1D03               	btfss	3,2
  1095  0198  07F7               	addwf	___lmul@product+2,f
  1096  0199  0827               	movf	___lmul@multiplicand+3,w
  1097  019A  1103               	clrz
  1098  019B  1803               	skipnc
  1099  019C  3E01               	addlw	1
  1100  019D  1D03               	btfss	3,2
  1101  019E  07F8               	addwf	___lmul@product+3,f
  1102  019F                     l782:	
  1103  019F  3001               	movlw	1
  1104  01A0  00F4               	movwf	??___lmul
  1105  01A1                     u265:	
  1106  01A1  1003               	clrc
  1107  01A2  0DA4               	rlf	___lmul@multiplicand,f
  1108  01A3  0DA5               	rlf	___lmul@multiplicand+1,f
  1109  01A4  0DA6               	rlf	___lmul@multiplicand+2,f
  1110  01A5  0DA7               	rlf	___lmul@multiplicand+3,f
  1111  01A6  0BF4               	decfsz	??___lmul,f
  1112  01A7  29A1               	goto	u265
  1113  01A8  3001               	movlw	1
  1114  01A9                     u275:	
  1115  01A9  1003               	clrc
  1116  01AA  0CA3               	rrf	___lmul@multiplier+3,f
  1117  01AB  0CA2               	rrf	___lmul@multiplier+2,f
  1118  01AC  0CA1               	rrf	___lmul@multiplier+1,f
  1119  01AD  0CA0               	rrf	___lmul@multiplier,f
  1120  01AE  3EFF               	addlw	-1
  1121  01AF  1D03               	skipz
  1122  01B0  29A9               	goto	u275
  1123  01B1  0823               	movf	___lmul@multiplier+3,w
  1124  01B2  0422               	iorwf	___lmul@multiplier+2,w
  1125  01B3  0421               	iorwf	___lmul@multiplier+1,w
  1126  01B4  0420               	iorwf	___lmul@multiplier,w
  1127  01B5  1D03               	skipz
  1128  01B6  2987               	goto	l778
  1129  01B7  0878               	movf	___lmul@product+3,w
  1130  01B8  00A3               	movwf	?___lmul+3
  1131  01B9  0877               	movf	___lmul@product+2,w
  1132  01BA  00A2               	movwf	?___lmul+2
  1133  01BB  0876               	movf	___lmul@product+1,w
  1134  01BC  00A1               	movwf	?___lmul+1
  1135  01BD  0875               	movf	___lmul@product,w
  1136  01BE  00A0               	movwf	?___lmul
  1137  01BF  0008               	return
  1138  01C0                     __end_of___lmul:	
  1139                           
  1140                           	psect	text3
  1141  011F                     __ptext3:	
  1142 ;; *************** function ___lldiv *****************
  1143 ;; Defined at:
  1144 ;;		line 6 in file "/Applications/microchip/xc8/v1.34/sources/common/lldiv.c"
  1145 ;; Parameters:    Size  Location     Type
  1146 ;;  divisor         4    8[BANK0 ] unsigned long 
  1147 ;;  dividend        4   12[BANK0 ] unsigned long 
  1148 ;; Auto vars:     Size  Location     Type
  1149 ;;  quotient        4   16[BANK0 ] unsigned long 
  1150 ;;  counter         1   20[BANK0 ] unsigned char 
  1151 ;; Return value:  Size  Location     Type
  1152 ;;                  4    8[BANK0 ] unsigned long 
  1153 ;; Registers used:
  1154 ;;		wreg, status,2, status,0
  1155 ;; Tracked objects:
  1156 ;;		On entry : 0/0
  1157 ;;		On exit  : 0/0
  1158 ;;		Unchanged: 0/0
  1159 ;; Data sizes:     COMMON   BANK0   BANK1   BANK2
  1160 ;;      Params:         0       8       0       0
  1161 ;;      Locals:         0       5       0       0
  1162 ;;      Temps:          1       0       0       0
  1163 ;;      Totals:         1      13       0       0
  1164 ;;Total ram usage:       14 bytes
  1165 ;; Hardware stack levels used:    1
  1166 ;; Hardware stack levels required when called:    1
  1167 ;; This function calls:
  1168 ;;		Nothing
  1169 ;; This function is called by:
  1170 ;;		_get_voltage
  1171 ;; This function uses a non-reentrant model
  1172 ;;
  1173                           
  1174                           
  1175                           ;psect for function ___lldiv
  1176  011F                     ___lldiv:	
  1177                           
  1178                           ;incstack = 0
  1179                           ; Regs used in ___lldiv: [wreg+status,2+status,0]
  1180  011F  3000               	movlw	0
  1181  0120  1283               	bcf	3,5	;RP0=0, select bank0
  1182  0121  1303               	bcf	3,6	;RP1=0, select bank0
  1183  0122  00B3               	movwf	___lldiv@quotient+3
  1184  0123  3000               	movlw	0
  1185  0124  00B2               	movwf	___lldiv@quotient+2
  1186  0125  3000               	movlw	0
  1187  0126  00B1               	movwf	___lldiv@quotient+1
  1188  0127  3000               	movlw	0
  1189  0128  00B0               	movwf	___lldiv@quotient
  1190  0129  082B               	movf	___lldiv@divisor+3,w
  1191  012A  042A               	iorwf	___lldiv@divisor+2,w
  1192  012B  0429               	iorwf	___lldiv@divisor+1,w
  1193  012C  0428               	iorwf	___lldiv@divisor,w
  1194  012D  1903               	skipnz
  1195  012E  2976               	goto	l810
  1196  012F  01B4               	clrf	___lldiv@counter
  1197  0130  0AB4               	incf	___lldiv@counter,f
  1198  0131                     l796:	
  1199  0131  1BAB               	btfsc	___lldiv@divisor+3,7
  1200  0132  2941               	goto	l798
  1201  0133  3001               	movlw	1
  1202  0134  00F9               	movwf	??___lldiv
  1203  0135                     u305:	
  1204  0135  1003               	clrc
  1205  0136  0DA8               	rlf	___lldiv@divisor,f
  1206  0137  0DA9               	rlf	___lldiv@divisor+1,f
  1207  0138  0DAA               	rlf	___lldiv@divisor+2,f
  1208  0139  0DAB               	rlf	___lldiv@divisor+3,f
  1209  013A  0BF9               	decfsz	??___lldiv,f
  1210  013B  2935               	goto	u305
  1211  013C  3001               	movlw	1
  1212  013D  00F9               	movwf	??___lldiv
  1213  013E  0879               	movf	??___lldiv,w
  1214  013F  07B4               	addwf	___lldiv@counter,f
  1215  0140  2931               	goto	l796
  1216  0141                     l798:	
  1217  0141  3001               	movlw	1
  1218  0142  00F9               	movwf	??___lldiv
  1219  0143                     u325:	
  1220  0143  1003               	clrc
  1221  0144  0DB0               	rlf	___lldiv@quotient,f
  1222  0145  0DB1               	rlf	___lldiv@quotient+1,f
  1223  0146  0DB2               	rlf	___lldiv@quotient+2,f
  1224  0147  0DB3               	rlf	___lldiv@quotient+3,f
  1225  0148  0BF9               	decfsz	??___lldiv,f
  1226  0149  2943               	goto	u325
  1227  014A  082B               	movf	___lldiv@divisor+3,w
  1228  014B  022F               	subwf	___lldiv@dividend+3,w
  1229  014C  1D03               	skipz
  1230  014D  2958               	goto	u335
  1231  014E  082A               	movf	___lldiv@divisor+2,w
  1232  014F  022E               	subwf	___lldiv@dividend+2,w
  1233  0150  1D03               	skipz
  1234  0151  2958               	goto	u335
  1235  0152  0829               	movf	___lldiv@divisor+1,w
  1236  0153  022D               	subwf	___lldiv@dividend+1,w
  1237  0154  1D03               	skipz
  1238  0155  2958               	goto	u335
  1239  0156  0828               	movf	___lldiv@divisor,w
  1240  0157  022C               	subwf	___lldiv@dividend,w
  1241  0158                     u335:	
  1242  0158  1C03               	skipc
  1243  0159  2969               	goto	l806
  1244  015A  0828               	movf	___lldiv@divisor,w
  1245  015B  02AC               	subwf	___lldiv@dividend,f
  1246  015C  0829               	movf	___lldiv@divisor+1,w
  1247  015D  1C03               	skipc
  1248  015E  0F29               	incfsz	___lldiv@divisor+1,w
  1249  015F  02AD               	subwf	___lldiv@dividend+1,f
  1250  0160  082A               	movf	___lldiv@divisor+2,w
  1251  0161  1C03               	skipc
  1252  0162  0F2A               	incfsz	___lldiv@divisor+2,w
  1253  0163  02AE               	subwf	___lldiv@dividend+2,f
  1254  0164  082B               	movf	___lldiv@divisor+3,w
  1255  0165  1C03               	skipc
  1256  0166  0F2B               	incfsz	___lldiv@divisor+3,w
  1257  0167  02AF               	subwf	___lldiv@dividend+3,f
  1258  0168  1430               	bsf	___lldiv@quotient,0
  1259  0169                     l806:	
  1260  0169  3001               	movlw	1
  1261  016A                     u345:	
  1262  016A  1003               	clrc
  1263  016B  0CAB               	rrf	___lldiv@divisor+3,f
  1264  016C  0CAA               	rrf	___lldiv@divisor+2,f
  1265  016D  0CA9               	rrf	___lldiv@divisor+1,f
  1266  016E  0CA8               	rrf	___lldiv@divisor,f
  1267  016F  3EFF               	addlw	-1
  1268  0170  1D03               	skipz
  1269  0171  296A               	goto	u345
  1270  0172  3001               	movlw	1
  1271  0173  02B4               	subwf	___lldiv@counter,f
  1272  0174  1D03               	btfss	3,2
  1273  0175  2941               	goto	l798
  1274  0176                     l810:	
  1275  0176  0833               	movf	___lldiv@quotient+3,w
  1276  0177  00AB               	movwf	?___lldiv+3
  1277  0178  0832               	movf	___lldiv@quotient+2,w
  1278  0179  00AA               	movwf	?___lldiv+2
  1279  017A  0831               	movf	___lldiv@quotient+1,w
  1280  017B  00A9               	movwf	?___lldiv+1
  1281  017C  0830               	movf	___lldiv@quotient,w
  1282  017D  00A8               	movwf	?___lldiv
  1283  017E  0008               	return
  1284  017F                     __end_of___lldiv:	
  1285                           
  1286                           	psect	text4
  1287  0234                     __ptext4:	
  1288 ;; *************** function _SPI_Write *****************
  1289 ;; Defined at:
  1290 ;;		line 33 in file "main.c"
  1291 ;; Parameters:    Size  Location     Type
  1292 ;;  data            2    4[COMMON] unsigned int 
  1293 ;; Auto vars:     Size  Location     Type
  1294 ;;  config          2    8[COMMON] unsigned int 
  1295 ;; Return value:  Size  Location     Type
  1296 ;;		None               void
  1297 ;; Registers used:
  1298 ;;		wreg, status,2, status,0
  1299 ;; Tracked objects:
  1300 ;;		On entry : 0/0
  1301 ;;		On exit  : 0/0
  1302 ;;		Unchanged: 0/0
  1303 ;; Data sizes:     COMMON   BANK0   BANK1   BANK2
  1304 ;;      Params:         2       0       0       0
  1305 ;;      Locals:         2       0       0       0
  1306 ;;      Temps:          2       0       0       0
  1307 ;;      Totals:         6       0       0       0
  1308 ;;Total ram usage:        6 bytes
  1309 ;; Hardware stack levels used:    1
  1310 ;; Hardware stack levels required when called:    1
  1311 ;; This function calls:
  1312 ;;		Nothing
  1313 ;; This function is called by:
  1314 ;;		_main
  1315 ;; This function uses a non-reentrant model
  1316 ;;
  1317                           
  1318                           
  1319                           ;psect for function _SPI_Write
  1320  0234                     _SPI_Write:	
  1321                           
  1322                           ;main.c: 35: PORTCbits.RC6 = 0;
  1323                           
  1324                           ;incstack = 0
  1325                           ; Regs used in _SPI_Write: [wreg+status,2+status,0]
  1326  0234  1283               	bcf	3,5	;RP0=0, select bank0
  1327  0235  1303               	bcf	3,6	;RP1=0, select bank0
  1328  0236  1307               	bcf	7,6	;volatile
  1329                           
  1330                           ;main.c: 38: uint16_t config = 0x3 << 12;
  1331  0237  3000               	movlw	0
  1332  0238  00F8               	movwf	SPI_Write@config
  1333  0239  3030               	movlw	48
  1334  023A  00F9               	movwf	SPI_Write@config+1
  1335                           
  1336                           ;main.c: 39: data = data & 0x0FFF;
  1337  023B  30FF               	movlw	255
  1338  023C  0574               	andwf	SPI_Write@data,w
  1339  023D  00F4               	movwf	SPI_Write@data
  1340  023E  300F               	movlw	15
  1341  023F  0575               	andwf	SPI_Write@data+1,w
  1342  0240  00F5               	movwf	SPI_Write@data+1
  1343                           
  1344                           ;main.c: 41: config = (config | data) >> 8;
  1345  0241  0874               	movf	SPI_Write@data,w
  1346  0242  0478               	iorwf	SPI_Write@config,w
  1347  0243  00F6               	movwf	??_SPI_Write
  1348  0244  0875               	movf	SPI_Write@data+1,w
  1349  0245  0479               	iorwf	SPI_Write@config+1,w
  1350  0246  00F7               	movwf	??_SPI_Write+1
  1351  0247  0877               	movf	??_SPI_Write+1,w
  1352  0248  00F6               	movwf	??_SPI_Write
  1353  0249  01F7               	clrf	??_SPI_Write+1
  1354  024A  0876               	movf	??_SPI_Write,w
  1355  024B  00F8               	movwf	SPI_Write@config
  1356  024C  0877               	movf	??_SPI_Write+1,w
  1357  024D  00F9               	movwf	SPI_Write@config+1
  1358                           
  1359                           ;main.c: 43: SSPBUF = config;
  1360  024E  0878               	movf	SPI_Write@config,w
  1361  024F  0093               	movwf	19	;volatile
  1362  0250                     l32:	
  1363                           ;main.c: 44: while( ! SSPSTATbits.BF);
  1364                           
  1365  0250  1683               	bsf	3,5	;RP0=1, select bank1
  1366  0251  1303               	bcf	3,6	;RP1=0, select bank1
  1367  0252  1C14               	btfss	20,0	;volatile
  1368  0253  2A50               	goto	l32
  1369                           
  1370                           ;main.c: 46: SSPBUF = data;
  1371  0254  0874               	movf	SPI_Write@data,w
  1372  0255  1283               	bcf	3,5	;RP0=0, select bank0
  1373  0256  1303               	bcf	3,6	;RP1=0, select bank0
  1374  0257  0093               	movwf	19	;volatile
  1375  0258                     l35:	
  1376                           ;main.c: 47: while( ! SSPSTATbits.BF);
  1377                           
  1378  0258  1683               	bsf	3,5	;RP0=1, select bank1
  1379  0259  1303               	bcf	3,6	;RP1=0, select bank1
  1380  025A  1C14               	btfss	20,0	;volatile
  1381  025B  2A58               	goto	l35
  1382                           
  1383                           ;main.c: 50: PORTCbits.RC6 = 1;
  1384  025C  1283               	bcf	3,5	;RP0=0, select bank0
  1385  025D  1303               	bcf	3,6	;RP1=0, select bank0
  1386  025E  1707               	bsf	7,6	;volatile
  1387  025F  0008               	return
  1388  0260                     __end_of_SPI_Write:	
  1389                           
  1390                           	psect	text5
  1391  01C0                     __ptext5:	
  1392 ;; *************** function _InitApp *****************
  1393 ;; Defined at:
  1394 ;;		line 22 in file "user.c"
  1395 ;; Parameters:    Size  Location     Type
  1396 ;;		None
  1397 ;; Auto vars:     Size  Location     Type
  1398 ;;		None
  1399 ;; Return value:  Size  Location     Type
  1400 ;;		None               void
  1401 ;; Registers used:
  1402 ;;		wreg, status,2, status,0
  1403 ;; Tracked objects:
  1404 ;;		On entry : 0/0
  1405 ;;		On exit  : 0/0
  1406 ;;		Unchanged: 0/0
  1407 ;; Data sizes:     COMMON   BANK0   BANK1   BANK2
  1408 ;;      Params:         0       0       0       0
  1409 ;;      Locals:         0       0       0       0
  1410 ;;      Temps:          0       0       0       0
  1411 ;;      Totals:         0       0       0       0
  1412 ;;Total ram usage:        0 bytes
  1413 ;; Hardware stack levels used:    1
  1414 ;; Hardware stack levels required when called:    1
  1415 ;; This function calls:
  1416 ;;		Nothing
  1417 ;; This function is called by:
  1418 ;;		_main
  1419 ;; This function uses a non-reentrant model
  1420 ;;
  1421                           
  1422                           
  1423                           ;psect for function _InitApp
  1424  01C0                     _InitApp:	
  1425                           
  1426                           ;user.c: 24: OSCCON = 0x70;
  1427                           
  1428                           ;incstack = 0
  1429                           ; Regs used in _InitApp: [wreg+status,2+status,0]
  1430  01C0  3070               	movlw	112
  1431  01C1  1683               	bsf	3,5	;RP0=1, select bank1
  1432  01C2  1303               	bcf	3,6	;RP1=0, select bank1
  1433  01C3  008F               	movwf	15	;volatile
  1434                           
  1435                           ;user.c: 27: ANSEL = 0;
  1436  01C4  1283               	bcf	3,5	;RP0=0, select bank2
  1437  01C5  1703               	bsf	3,6	;RP1=1, select bank2
  1438  01C6  019E               	clrf	30	;volatile
  1439                           
  1440                           ;user.c: 28: ANSELH = 0;
  1441  01C7  019F               	clrf	31	;volatile
  1442                           
  1443                           ;user.c: 31: TRISA = 0;
  1444  01C8  1683               	bsf	3,5	;RP0=1, select bank1
  1445  01C9  1303               	bcf	3,6	;RP1=0, select bank1
  1446  01CA  0185               	clrf	5	;volatile
  1447                           
  1448                           ;user.c: 32: TRISB = 0;
  1449  01CB  0186               	clrf	6	;volatile
  1450                           
  1451                           ;user.c: 33: TRISC = 0;
  1452  01CC  0187               	clrf	7	;volatile
  1453                           
  1454                           ;user.c: 39: TRISBbits.TRISB5 = 1;
  1455  01CD  1686               	bsf	6,5	;volatile
  1456                           
  1457                           ;user.c: 40: TRISBbits.TRISB7 = 1;
  1458  01CE  1786               	bsf	6,7	;volatile
  1459                           
  1460                           ;user.c: 42: BAUDCTLbits.BRG16 = 0;
  1461  01CF  119B               	bcf	27,3	;volatile
  1462                           
  1463                           ;user.c: 44: SPBRG = 51;
  1464  01D0  3033               	movlw	51
  1465  01D1  0099               	movwf	25	;volatile
  1466                           
  1467                           ;user.c: 47: BRGH = 1;
  1468  01D2  1518               	bsf	24,2	;volatile
  1469                           
  1470                           ;user.c: 48: SYNC = 0;
  1471  01D3  1218               	bcf	24,4	;volatile
  1472                           
  1473                           ;user.c: 49: SPEN = 1;
  1474  01D4  1283               	bcf	3,5	;RP0=0, select bank0
  1475  01D5  1303               	bcf	3,6	;RP1=0, select bank0
  1476  01D6  1798               	bsf	24,7	;volatile
  1477                           
  1478                           ;user.c: 50: CREN = 0;
  1479  01D7  1218               	bcf	24,4	;volatile
  1480                           
  1481                           ;user.c: 51: TXEN = 1;
  1482  01D8  1683               	bsf	3,5	;RP0=1, select bank1
  1483  01D9  1303               	bcf	3,6	;RP1=0, select bank1
  1484  01DA  1698               	bsf	24,5	;volatile
  1485                           
  1486                           ;user.c: 60: TRISCbits.TRISC7 = 0;
  1487  01DB  1387               	bcf	7,7	;volatile
  1488                           
  1489                           ;user.c: 61: TRISBbits.TRISB4 = 1;
  1490  01DC  1606               	bsf	6,4	;volatile
  1491                           
  1492                           ;user.c: 62: TRISBbits.TRISB6 = 0;
  1493  01DD  1306               	bcf	6,6	;volatile
  1494                           
  1495                           ;user.c: 63: TRISCbits.TRISC6 = 0;
  1496  01DE  1307               	bcf	7,6	;volatile
  1497                           
  1498                           ;user.c: 64: PORTCbits.RC6 = 1;
  1499  01DF  1283               	bcf	3,5	;RP0=0, select bank0
  1500  01E0  1303               	bcf	3,6	;RP1=0, select bank0
  1501  01E1  1707               	bsf	7,6	;volatile
  1502                           
  1503                           ;user.c: 66: SSPCONbits.SSPEN = 0;
  1504  01E2  1294               	bcf	20,5	;volatile
  1505                           
  1506                           ;user.c: 67: SSPCONbits.SSPM = 0b0000;
  1507  01E3  30F0               	movlw	-16
  1508  01E4  0594               	andwf	20,f	;volatile
  1509                           
  1510                           ;user.c: 68: SSPSTATbits.SMP = 1;
  1511  01E5  1683               	bsf	3,5	;RP0=1, select bank1
  1512  01E6  1303               	bcf	3,6	;RP1=0, select bank1
  1513  01E7  1794               	bsf	20,7	;volatile
  1514                           
  1515                           ;user.c: 69: SSPSTATbits.CKE = 1;
  1516  01E8  1714               	bsf	20,6	;volatile
  1517                           
  1518                           ;user.c: 70: SSPCONbits.CKP = 0;
  1519  01E9  1283               	bcf	3,5	;RP0=0, select bank0
  1520  01EA  1303               	bcf	3,6	;RP1=0, select bank0
  1521  01EB  1214               	bcf	20,4	;volatile
  1522                           
  1523                           ;user.c: 72: SSPCONbits.SSPEN = 1;
  1524  01EC  1694               	bsf	20,5	;volatile
  1525                           
  1526                           ;user.c: 77: TRISCbits.TRISC5 = 0;
  1527  01ED  1683               	bsf	3,5	;RP0=1, select bank1
  1528  01EE  1303               	bcf	3,6	;RP1=0, select bank1
  1529  01EF  1287               	bcf	7,5	;volatile
  1530                           
  1531                           ;user.c: 80: TRISAbits.TRISA4 = 1;
  1532  01F0  1605               	bsf	5,4	;volatile
  1533                           
  1534                           ;user.c: 81: nRABPU = 0;
  1535  01F1  1381               	bcf	1,7	;volatile
  1536                           
  1537                           ;user.c: 82: WPUAbits.WPUA4 = 1;
  1538  01F2  1615               	bsf	21,4	;volatile
  1539                           
  1540                           ;user.c: 83: TRISAbits.TRISA2 = 0;
  1541  01F3  1105               	bcf	5,2	;volatile
  1542                           
  1543                           ;user.c: 84: TRISCbits.TRISC0 = 0;
  1544  01F4  1007               	bcf	7,0	;volatile
  1545                           
  1546                           ;user.c: 85: TRISCbits.TRISC1 = 0;
  1547  01F5  1087               	bcf	7,1	;volatile
  1548                           
  1549                           ;user.c: 86: TRISCbits.TRISC2 = 0;
  1550  01F6  1107               	bcf	7,2	;volatile
  1551                           
  1552                           ;user.c: 89: TRISAbits.TRISA5 = 1;
  1553  01F7  1685               	bsf	5,5	;volatile
  1554                           
  1555                           ;user.c: 90: nRABPU = 0;
  1556  01F8  1381               	bcf	1,7	;volatile
  1557                           
  1558                           ;user.c: 91: WPUAbits.WPUA5 = 1;
  1559  01F9  1695               	bsf	21,5	;volatile
  1560                           
  1561                           ;user.c: 92: TRISBbits.TRISB4 = 0;
  1562  01FA  1206               	bcf	6,4	;volatile
  1563                           
  1564                           ;user.c: 93: TRISCbits.TRISC3 = 0;
  1565  01FB  1187               	bcf	7,3	;volatile
  1566                           
  1567                           ;user.c: 94: TRISCbits.TRISC4 = 0;
  1568  01FC  1207               	bcf	7,4	;volatile
  1569  01FD  0008               	return
  1570  01FE                     __end_of_InitApp:	
  1571                           
  1572                           	psect	text6
  1573  026B                     __ptext6:	
  1574 ;; *************** function _ConfigureOscillator *****************
  1575 ;; Defined at:
  1576 ;;		line 18 in file "system.c"
  1577 ;; Parameters:    Size  Location     Type
  1578 ;;		None
  1579 ;; Auto vars:     Size  Location     Type
  1580 ;;		None
  1581 ;; Return value:  Size  Location     Type
  1582 ;;		None               void
  1583 ;; Registers used:
  1584 ;;		wreg
  1585 ;; Tracked objects:
  1586 ;;		On entry : 0/0
  1587 ;;		On exit  : 0/0
  1588 ;;		Unchanged: 0/0
  1589 ;; Data sizes:     COMMON   BANK0   BANK1   BANK2
  1590 ;;      Params:         0       0       0       0
  1591 ;;      Locals:         0       0       0       0
  1592 ;;      Temps:          0       0       0       0
  1593 ;;      Totals:         0       0       0       0
  1594 ;;Total ram usage:        0 bytes
  1595 ;; Hardware stack levels used:    1
  1596 ;; Hardware stack levels required when called:    1
  1597 ;; This function calls:
  1598 ;;		Nothing
  1599 ;; This function is called by:
  1600 ;;		_main
  1601 ;; This function uses a non-reentrant model
  1602 ;;
  1603                           
  1604                           
  1605                           ;psect for function _ConfigureOscillator
  1606  026B                     _ConfigureOscillator:	
  1607                           
  1608                           ;system.c: 21: OSCCON = 0x70;
  1609                           
  1610                           ;incstack = 0
  1611                           ; Regs used in _ConfigureOscillator: [wreg]
  1612  026B  3070               	movlw	112
  1613  026C  1683               	bsf	3,5	;RP0=1, select bank1
  1614  026D  1303               	bcf	3,6	;RP1=0, select bank1
  1615  026E  008F               	movwf	15	;volatile
  1616  026F  0008               	return
  1617  0270                     __end_of_ConfigureOscillator:	
  1618                           
  1619                           	psect	text7
  1620  0260                     __ptext7:	
  1621 ;; *************** function _isr *****************
  1622 ;; Defined at:
  1623 ;;		line 23 in file "interrupts.c"
  1624 ;; Parameters:    Size  Location     Type
  1625 ;;		None
  1626 ;; Auto vars:     Size  Location     Type
  1627 ;;		None
  1628 ;; Return value:  Size  Location     Type
  1629 ;;		None               void
  1630 ;; Registers used:
  1631 ;;		None
  1632 ;; Tracked objects:
  1633 ;;		On entry : 0/0
  1634 ;;		On exit  : 0/0
  1635 ;;		Unchanged: 0/0
  1636 ;; Data sizes:     COMMON   BANK0   BANK1   BANK2
  1637 ;;      Params:         0       0       0       0
  1638 ;;      Locals:         0       0       0       0
  1639 ;;      Temps:          4       0       0       0
  1640 ;;      Totals:         4       0       0       0
  1641 ;;Total ram usage:        4 bytes
  1642 ;; Hardware stack levels used:    1
  1643 ;; This function calls:
  1644 ;;		Nothing
  1645 ;; This function is called by:
  1646 ;;		Interrupt level 1
  1647 ;; This function uses a non-reentrant model
  1648 ;;
  1649                           
  1650                           
  1651                           ;psect for function _isr
  1652  0260                     _isr:	
  1653  0260  0873               	movf	??_isr+3,w
  1654  0261  00FF               	movwf	127
  1655  0262  0872               	movf	??_isr+2,w
  1656  0263  008A               	movwf	10
  1657  0264  0871               	movf	??_isr+1,w
  1658  0265  0084               	movwf	4
  1659  0266  0E70               	swapf	??_isr^(0+-128),w
  1660  0267  0083               	movwf	3
  1661  0268  0EFE               	swapf	126,f
  1662  0269  0E7E               	swapf	126,w
  1663  026A  0009               	retfie
  1664  026B                     __end_of_isr:	
  1665  007E                     btemp	set	126	;btemp
  1666  007E                     wtemp	set	126
  1667  007E                     wtemp0	set	126
  1668  0080                     wtemp1	set	128
  1669  0082                     wtemp2	set	130
  1670  0084                     wtemp3	set	132
  1671  0086                     wtemp4	set	134
  1672  0088                     wtemp5	set	136
  1673  007F                     wtemp6	set	127
  1674  007E                     ttemp	set	126
  1675  007E                     ttemp0	set	126
  1676  0081                     ttemp1	set	129
  1677  0084                     ttemp2	set	132
  1678  0087                     ttemp3	set	135
  1679  007F                     ttemp4	set	127
  1680  007E                     ltemp	set	126
  1681  007E                     ltemp0	set	126
  1682  0082                     ltemp1	set	130
  1683  0086                     ltemp2	set	134
  1684  0080                     ltemp3	set	128
  1685                           
  1686                           	psect	intentry
  1687  0004                     __pintentry:	
  1688                           ;incstack = 0
  1689                           ; Regs used in _isr: []
  1690                           
  1691  0004                     interrupt_function:	
  1692  007E                     saved_w	set	btemp
  1693  0004  00FE               	movwf	btemp
  1694  0005  0E03               	swapf	3,w
  1695  0006  00F0               	movwf	??_isr
  1696  0007  0804               	movf	4,w
  1697  0008  00F1               	movwf	??_isr+1
  1698  0009  080A               	movf	10,w
  1699  000A  00F2               	movwf	??_isr+2
  1700  000B  1283               	bcf	3,5	;RP0=0, select bank0
  1701  000C  1303               	bcf	3,6	;RP1=0, select bank0
  1702  000D  087F               	movf	btemp+1,w
  1703  000E  00F3               	movwf	??_isr+3
  1704  000F  118A  2A60         	ljmp	_isr


Data Sizes:
    Strings     0
    Constant    0
    Data        2
    BSS         4
    Persistent  0
    Stack       0

Auto Spaces:
    Space          Size  Autos    Used
    COMMON           14     10      10
    BANK0            80     34      40
    BANK1            80      0       0
    BANK2            80      0       0

Pointer List with Targets:

    None.

Critical Paths under _main in COMMON

    _main->_SPI_Write
    _get_voltage->___lldiv
    ___lldiv->___lmul

Critical Paths under _isr in COMMON

    None.

Critical Paths under _main in BANK0

    _main->_get_voltage
    _get_voltage->___lldiv
    ___lldiv->___lmul

Critical Paths under _isr in BANK0

    None.

Critical Paths under _main in BANK1

    None.

Critical Paths under _isr in BANK1

    None.

Critical Paths under _main in BANK2

    None.

Critical Paths under _isr in BANK2

    None.

Call Graph Tables:

 ---------------------------------------------------------------------------------
 (Depth) Function   	        Calls       Base Space   Used Autos Params    Refs
 ---------------------------------------------------------------------------------
 (0) _main                                                 9     9      0    1063
                                             25 BANK0      9     9      0
                _ConfigureOscillator
                            _InitApp
                          _SPI_Write
                        _get_voltage
 ---------------------------------------------------------------------------------
 (1) _get_voltage                                          4     0      4     596
                                             21 BANK0      4     0      4
                            ___lldiv
                             ___lmul
 ---------------------------------------------------------------------------------
 (2) ___lmul                                              13     5      8     220
                                              4 COMMON     5     5      0
                                              0 BANK0      8     0      8
 ---------------------------------------------------------------------------------
 (2) ___lldiv                                             14     6      8     290
                                              9 COMMON     1     1      0
                                              8 BANK0     13     5      8
                             ___lmul (ARG)
 ---------------------------------------------------------------------------------
 (1) _SPI_Write                                            6     4      2     177
                                              4 COMMON     6     4      2
 ---------------------------------------------------------------------------------
 (1) _InitApp                                              0     0      0       0
 ---------------------------------------------------------------------------------
 (1) _ConfigureOscillator                                  0     0      0       0
 ---------------------------------------------------------------------------------
 Estimated maximum stack depth 2
 ---------------------------------------------------------------------------------
 (Depth) Function   	        Calls       Base Space   Used Autos Params    Refs
 ---------------------------------------------------------------------------------
 (3) _isr                                                  4     4      0       0
                                              0 COMMON     4     4      0
 ---------------------------------------------------------------------------------
 Estimated maximum stack depth 3
 ---------------------------------------------------------------------------------

 Call Graph Graphs:

 _main (ROOT)
   _ConfigureOscillator
   _InitApp
   _SPI_Write
   _get_voltage
     ___lldiv
       ___lmul (ARG)
     ___lmul

 _isr (ROOT)

 Address spaces:
Name               Size   Autos  Total    Cost      Usage
SFR3                 0      0       0       4        0.0%
BITSFR3              0      0       0       4        0.0%
BANK2               50      0       0       7        0.0%
BITBANK2            50      0       0       6        0.0%
SFR2                 0      0       0       5        0.0%
BITSFR2              0      0       0       5        0.0%
BANK1               50      0       0       5        0.0%
BITBANK1            50      0       0       4        0.0%
SFR1                 0      0       0       2        0.0%
BITSFR1              0      0       0       2        0.0%
BANK0               50     22      28       3       50.0%
BITBANK0            50      0       0       9        0.0%
SFR0                 0      0       0       1        0.0%
BITSFR0              0      0       0       1        0.0%
COMMON               E      A       A       1       71.4%
BITCOMMON            E      0       0       0        0.0%
CODE                 0      0       0       0        0.0%
DATA                 0      0      32      10        0.0%
ABS                  0      0      32       8        0.0%
NULL                 0      0       0       0        0.0%
STACK                0      0       0       2        0.0%
EEDATA             100      0       0       0        0.0%


Microchip Technology PIC Macro Assembler V1.34 build -361300703 
Symbol Table                                                                                   Fri May  1 00:27:08 2015

                 __CFG_CP$OFF 0000                   _SSPSTATbits 0094                            l32 0250  
                          l35 0258                            l70 011D                            l63 0040  
                          l67 00E5                  ?_get_voltage 0035                           l810 0176  
                         l806 0169                           l930 00A0                           l914 0036  
                         l782 019F                           l936 00DB                           l778 0187  
                         l938 00EC                           l796 0131                           l798 0141  
                         u305 0135                           u325 0143                           u335 0158  
                         u415 0046                           u345 016A                           u265 01A1  
                __CFG_CPD$OFF 0000                           u275 01A9                           u437 002F  
                         u447 0096                           u457 00D2                           _isr 0260  
                         fsr0 0004                          ?_isr 0070                          _BRGH 04C2  
                        _CREN 00C4                          _SPEN 00C7                          _TXEN 04C5  
                        _TXIF 0064                          _SYNC 04C4                          _main 0021  
                        btemp 007E                          ltemp 007E                          start 0011  
                        ttemp 007E                          wtemp 007E                 __CFG_IESO$OFF 0000  
               __CFG_MCLRE$ON 0000               __end_of_InitApp 01FE                         ??_isr 0070  
                       ?_main 0070                 __CFG_WDTE$OFF 0000                         _ANSEL 011E  
             __end_of___lldiv 017F                         _SPBRG 0099                         _TRISA 0085  
                       _TRISB 0086                         _TRISC 0087                         _TXREG 0019  
         _ConfigureOscillator 026B           ___lmul@multiplicand 0024                 __CFG_PWRTE$ON 0000  
                main@real_key 003C                __CFG_FCMEN$OFF 0000                __CFG_BOREN$OFF 0000  
                       pclath 000A                         ltemp0 007E                         ltemp1 0082  
                       ltemp2 0086                         ltemp3 0080                         ttemp0 007E  
                       ttemp1 0081                         ttemp2 0084                         ttemp3 0087  
                       ttemp4 007F                         status 0003                         wtemp0 007E  
                       wtemp1 0080                         wtemp2 0082                         wtemp3 0084  
                       wtemp4 0086                         wtemp5 0088                         wtemp6 007F  
          __size_of_SPI_Write 002C          ?_ConfigureOscillator 0070               __initialization 0013  
                __end_of_main 011F                        ??_main 0039                        _ANSELH 011F  
                      _OSCCON 008F                        _SSPBUF 0013                     ??_InitApp 0074  
       ??_ConfigureOscillator 0074                        _nRABPU 040F                        ___lmul 017F  
                   ??___lldiv 0079          __size_of_get_voltage 0036             __end_of_SPI_Write 0260  
                      saved_w 007E       __end_of__initialization 001E                __pcstackCOMMON 0070  
                __pidataBANK0 0270                    __pbssBANK0 0042                    __pmaintext 0021  
                     ?___lmul 0020                    __pintentry 0004                ___lmul@product 0075  
                     _InitApp 01C0                main@real_value 003E                 SPI_Write@data 0074  
             __size_of___lmul 0041                       ___lldiv 011F                       __ptext1 01FE  
                     __ptext2 017F                       __ptext3 011F                       __ptext4 0234  
                     __ptext5 01C0                       __ptext6 026B                       __ptext7 0260  
                __size_of_isr 000B          end_of_initialization 001E               ___lldiv@divisor 0028  
             ___lldiv@counter 0034                     _PORTAbits 0005                     _PORTBbits 0006  
                   _PORTCbits 0007                     _TRISAbits 0085                     _TRISBbits 0086  
                   _TRISCbits 0087                     _SPI_Write 0234   __end_of_ConfigureOscillator 0270  
               ??_get_voltage 007A                __end_of___lmul 01C0                   _BAUDCTLbits 009B  
         start_initialization 0013                   __end_of_isr 026B                    ?_SPI_Write 0074  
             SPI_Write@config 0078                      ??___lmul 0074                   __pdataBANK0 0046  
         __end_of_get_voltage 0234                     ___latbits 0001                 __pcstackBANK0 0020  
                    ?_InitApp 0070                      ?___lldiv 0028                   ??_SPI_Write 0076  
                   _key_count 0046             interrupt_function 0004                   _get_voltage 01FE  
                    _WPUAbits 0095               main@current_key 0040             ___lmul@multiplier 0020  
            __size_of_InitApp 003E              __size_of___lldiv 0060            get_voltage@keyCode 0035  
                    _last_key 0042                 __size_of_main 00FE  __size_of_ConfigureOscillator 0005  
                    intlevel1 0000              ___lldiv@dividend 002C                  _pressed_keys 0044  
            ___lldiv@quotient 0030             __CFG_FOSC$INTRCIO 0000                    _SSPCONbits 0014  
